
helloworld.elf:     file format elf32-littleriscv


Disassembly of section .text.init:

80000000 <_start>:
80000000:	4081                	li	ra,0
80000002:	4101                	li	sp,0
80000004:	4181                	li	gp,0
80000006:	4201                	li	tp,0
80000008:	4281                	li	t0,0
8000000a:	4301                	li	t1,0
8000000c:	4381                	li	t2,0
8000000e:	4401                	li	s0,0
80000010:	4481                	li	s1,0
80000012:	4501                	li	a0,0
80000014:	4581                	li	a1,0
80000016:	4601                	li	a2,0
80000018:	4681                	li	a3,0
8000001a:	4701                	li	a4,0
8000001c:	4781                	li	a5,0
8000001e:	4801                	li	a6,0
80000020:	4881                	li	a7,0
80000022:	4901                	li	s2,0
80000024:	4981                	li	s3,0
80000026:	4a01                	li	s4,0
80000028:	4a81                	li	s5,0
8000002a:	4b01                	li	s6,0
8000002c:	4b81                	li	s7,0
8000002e:	4c01                	li	s8,0
80000030:	4c81                	li	s9,0
80000032:	4d01                	li	s10,0
80000034:	4d81                	li	s11,0
80000036:	4e01                	li	t3,0
80000038:	4e81                	li	t4,0
8000003a:	4f01                	li	t5,0
8000003c:	4f81                	li	t6,0
8000003e:	62f9                	lui	t0,0x1e
80000040:	3002a073          	csrs	mstatus,t0
80000044:	4285                	li	t0,1
80000046:	02fe                	slli	t0,t0,0x1f
80000048:	0002c863          	bltz	t0,80000058 <_start+0x58>
8000004c:	4505                	li	a0,1
8000004e:	00001297          	auipc	t0,0x1
80000052:	faa2a923          	sw	a0,-78(t0) # 80001000 <tohost>
80000056:	bfdd                	j	8000004c <_start+0x4c>
80000058:	00000297          	auipc	t0,0x0
8000005c:	03c28293          	addi	t0,t0,60 # 80000094 <trap_entry>
80000060:	30529073          	csrw	mtvec,t0
80000064:	00007197          	auipc	gp,0x7
80000068:	79c18193          	addi	gp,gp,1948 # 80007800 <__global_pointer$>
8000006c:	00007217          	auipc	tp,0x7
80000070:	01320213          	addi	tp,tp,19 # 8000707f <_end+0x3f>
80000074:	fc027213          	andi	tp,tp,-64
80000078:	f1402573          	csrr	a0,mhartid
8000007c:	4585                	li	a1,1
8000007e:	00b57063          	bgeu	a0,a1,8000007e <_start+0x7e>
80000082:	00150113          	addi	sp,a0,1
80000086:	0146                	slli	sp,sp,0x11
80000088:	9112                	add	sp,sp,tp
8000008a:	01151613          	slli	a2,a0,0x11
8000008e:	9232                	add	tp,tp,a2
80000090:	6ec0306f          	j	8000377c <_init>

80000094 <trap_entry>:
80000094:	716d                	addi	sp,sp,-272
80000096:	c206                	sw	ra,4(sp)
80000098:	c40a                	sw	sp,8(sp)
8000009a:	c60e                	sw	gp,12(sp)
8000009c:	c812                	sw	tp,16(sp)
8000009e:	ca16                	sw	t0,20(sp)
800000a0:	cc1a                	sw	t1,24(sp)
800000a2:	ce1e                	sw	t2,28(sp)
800000a4:	d022                	sw	s0,32(sp)
800000a6:	d226                	sw	s1,36(sp)
800000a8:	d42a                	sw	a0,40(sp)
800000aa:	d62e                	sw	a1,44(sp)
800000ac:	d832                	sw	a2,48(sp)
800000ae:	da36                	sw	a3,52(sp)
800000b0:	dc3a                	sw	a4,56(sp)
800000b2:	de3e                	sw	a5,60(sp)
800000b4:	c0c2                	sw	a6,64(sp)
800000b6:	c2c6                	sw	a7,68(sp)
800000b8:	c4ca                	sw	s2,72(sp)
800000ba:	c6ce                	sw	s3,76(sp)
800000bc:	c8d2                	sw	s4,80(sp)
800000be:	cad6                	sw	s5,84(sp)
800000c0:	ccda                	sw	s6,88(sp)
800000c2:	cede                	sw	s7,92(sp)
800000c4:	d0e2                	sw	s8,96(sp)
800000c6:	d2e6                	sw	s9,100(sp)
800000c8:	d4ea                	sw	s10,104(sp)
800000ca:	d6ee                	sw	s11,108(sp)
800000cc:	d8f2                	sw	t3,112(sp)
800000ce:	daf6                	sw	t4,116(sp)
800000d0:	dcfa                	sw	t5,120(sp)
800000d2:	defe                	sw	t6,124(sp)
800000d4:	34202573          	csrr	a0,mcause
800000d8:	341025f3          	csrr	a1,mepc
800000dc:	860a                	mv	a2,sp
800000de:	4ce030ef          	jal	800035ac <handle_trap>
800000e2:	34151073          	csrw	mepc,a0
800000e6:	6289                	lui	t0,0x2
800000e8:	80028293          	addi	t0,t0,-2048 # 1800 <buflen.0+0x17c0>
800000ec:	3002a073          	csrs	mstatus,t0
800000f0:	4092                	lw	ra,4(sp)
800000f2:	4122                	lw	sp,8(sp)
800000f4:	41b2                	lw	gp,12(sp)
800000f6:	4242                	lw	tp,16(sp)
800000f8:	42d2                	lw	t0,20(sp)
800000fa:	4362                	lw	t1,24(sp)
800000fc:	43f2                	lw	t2,28(sp)
800000fe:	5402                	lw	s0,32(sp)
80000100:	5492                	lw	s1,36(sp)
80000102:	5522                	lw	a0,40(sp)
80000104:	55b2                	lw	a1,44(sp)
80000106:	5642                	lw	a2,48(sp)
80000108:	56d2                	lw	a3,52(sp)
8000010a:	5762                	lw	a4,56(sp)
8000010c:	57f2                	lw	a5,60(sp)
8000010e:	4806                	lw	a6,64(sp)
80000110:	4896                	lw	a7,68(sp)
80000112:	4926                	lw	s2,72(sp)
80000114:	49b6                	lw	s3,76(sp)
80000116:	4a46                	lw	s4,80(sp)
80000118:	4ad6                	lw	s5,84(sp)
8000011a:	4b66                	lw	s6,88(sp)
8000011c:	4bf6                	lw	s7,92(sp)
8000011e:	5c06                	lw	s8,96(sp)
80000120:	5c96                	lw	s9,100(sp)
80000122:	5d26                	lw	s10,104(sp)
80000124:	5db6                	lw	s11,108(sp)
80000126:	5e46                	lw	t3,112(sp)
80000128:	5ed6                	lw	t4,116(sp)
8000012a:	5f66                	lw	t5,120(sp)
8000012c:	5ff6                	lw	t6,124(sp)
8000012e:	6151                	addi	sp,sp,272
80000130:	30200073          	mret
80000134:	5501                	li	a0,-32
80000136:	a029                	j	80000140 <_exit>
80000138:	6e1040ef          	jal	80005018 <main>
8000013c:	a011                	j	80000140 <_exit>
8000013e:	a009                	j	80000140 <_exit>

80000140 <_exit>:
80000140:	0506                	slli	a0,a0,0x1
80000142:	0505                	addi	a0,a0,1
80000144:	00001f17          	auipc	t5,0x1
80000148:	eaaf2e23          	sw	a0,-324(t5) # 80001000 <tohost>
8000014c:	0001                	nop
8000014e:	a001                	j	8000014e <_exit+0xe>
80000150:	0001                	nop

Disassembly of section .text:

80003000 <verify>:
80003000:	4785                	li	a5,1
80003002:	02a7dc63          	bge	a5,a0,8000303a <verify+0x3a>
80003006:	ffe57e13          	andi	t3,a0,-2
8000300a:	87ae                	mv	a5,a1
8000300c:	8732                	mv	a4,a2
8000300e:	4681                	li	a3,0
80003010:	a809                	j	80003022 <verify+0x22>
80003012:	00472803          	lw	a6,4(a4)
80003016:	0689                	addi	a3,a3,2
80003018:	0721                	addi	a4,a4,8
8000301a:	01031e63          	bne	t1,a6,80003036 <verify+0x36>
8000301e:	01c6de63          	bge	a3,t3,8000303a <verify+0x3a>
80003022:	0007a883          	lw	a7,0(a5)
80003026:	00072803          	lw	a6,0(a4)
8000302a:	0047a303          	lw	t1,4(a5)
8000302e:	07a1                	addi	a5,a5,8
80003030:	ff0881e3          	beq	a7,a6,80003012 <verify+0x12>
80003034:	0685                	addi	a3,a3,1
80003036:	8536                	mv	a0,a3
80003038:	8082                	ret
8000303a:	00157793          	andi	a5,a0,1
8000303e:	4681                	li	a3,0
80003040:	dbfd                	beqz	a5,80003036 <verify+0x36>
80003042:	00251793          	slli	a5,a0,0x2
80003046:	95be                	add	a1,a1,a5
80003048:	963e                	add	a2,a2,a5
8000304a:	ffc5a683          	lw	a3,-4(a1)
8000304e:	ffc62783          	lw	a5,-4(a2)
80003052:	8e9d                	sub	a3,a3,a5
80003054:	00d036b3          	snez	a3,a3
80003058:	40d006b3          	neg	a3,a3
8000305c:	8ee9                	and	a3,a3,a0
8000305e:	8536                	mv	a0,a3
80003060:	8082                	ret

80003062 <verifyDouble>:
80003062:	7179                	addi	sp,sp,-48
80003064:	cc52                	sw	s4,24(sp)
80003066:	c462                	sw	s8,8(sp)
80003068:	c266                	sw	s9,4(sp)
8000306a:	d606                	sw	ra,44(sp)
8000306c:	4785                	li	a5,1
8000306e:	8a2a                	mv	s4,a0
80003070:	8c2e                	mv	s8,a1
80003072:	8cb2                	mv	s9,a2
80003074:	08a7d163          	bge	a5,a0,800030f6 <verifyDouble+0x94>
80003078:	d226                	sw	s1,36(sp)
8000307a:	d04a                	sw	s2,32(sp)
8000307c:	ce4e                	sw	s3,28(sp)
8000307e:	ca56                	sw	s5,20(sp)
80003080:	d422                	sw	s0,40(sp)
80003082:	c85a                	sw	s6,16(sp)
80003084:	c65e                	sw	s7,12(sp)
80003086:	ffe57a93          	andi	s5,a0,-2
8000308a:	892e                	mv	s2,a1
8000308c:	84b2                	mv	s1,a2
8000308e:	4981                	li	s3,0
80003090:	00092603          	lw	a2,0(s2)
80003094:	40cc                	lw	a1,4(s1)
80003096:	00492683          	lw	a3,4(s2)
8000309a:	4088                	lw	a0,0(s1)
8000309c:	00892b03          	lw	s6,8(s2)
800030a0:	00c92b83          	lw	s7,12(s2)
800030a4:	771000ef          	jal	80004014 <__eqdf2>
800030a8:	842a                	mv	s0,a0
800030aa:	44cc                	lw	a1,12(s1)
800030ac:	4488                	lw	a0,8(s1)
800030ae:	865a                	mv	a2,s6
800030b0:	86de                	mv	a3,s7
800030b2:	00143413          	seqz	s0,s0
800030b6:	75f000ef          	jal	80004014 <__eqdf2>
800030ba:	c10d                	beqz	a0,800030dc <verifyDouble+0x7a>
800030bc:	00198513          	addi	a0,s3,1
800030c0:	9522                	add	a0,a0,s0
800030c2:	5492                	lw	s1,36(sp)
800030c4:	5422                	lw	s0,40(sp)80000000:	4081                	li	ra,0
80000002:	4101                	li	sp,0
80000004:	4181                	li	gp,0
80000006:	4201                	li	tp,0
80000008:	4281                	li	t0,0
8000000a:	4301                	li	t1,0
8000000c:	4381                	li	t2,0
8000000e:	4401                	li	s0,0
80000010:	4481                	li	s1,0
80000012:	4501                	li	a0,0
80000014:	4581                	li	a1,0
80000016:	4601                	li	a2,0
80000018:	4681                	li	a3,0
8000001a:	4701                	li	a4,0
8000001c:	4781                	li	a5,0
8000001e:	4801                	li	a6,0
80000020:	4881                	li	a7,0
80000022:	4901                	li	s2,0
80000024:	4981                	li	s3,0
80000026:	4a01                	li	s4,0
80000028:	4a81                	li	s5,0
8000002a:	4b01                	li	s6,0
8000002c:	4b81                	li	s7,0
8000002e:	4c01                	li	s8,0
80000030:	4c81                	li	s9,0
80000032:	4d01                	li	s10,0
80000034:	4d81                	li	s11,0
80000036:	4e01                	li	t3,0
80000038:	4e81                	li	t4,0
8000003a:	4f01                	li	t5,0
8000003c:	4f81                	li	t6,0
8000003e:	62f9                	lui	t0,0x1e
80000040:	3002a073          	csrs	mstatus,t0
80000044:	4285                	li	t0,1
80000046:	02fe                	slli	t0,t0,0x1f
80000048:	0002c863          	bltz	t0,80000058 <_start+0x58>
8000004c:	4505                	li	a0,1
8000004e:	00001297          	auipc	t0,0x1
80000052:	faa2a923          	sw	a0,-78(t0) # 80001000 <tohost>
80000056:	bfdd                	j	8000004c <_start+0x4c>
80000058:	00000297          	auipc	t0,0x0
8000005c:	03c28293          	addi	t0,t0,60 # 80000094 <trap_entry>
80000060:	30529073          	csrw	mtvec,t0
80000064:	00007197          	auipc	gp,0x7
80000068:	79c18193          	addi	gp,gp,1948 # 80007800 <__global_pointer$>
8000006c:	00007217          	auipc	tp,0x7
80000070:	01320213          	addi	tp,tp,19 # 8000707f <_end+0x3f>
80000074:	fc027213          	andi	tp,tp,-64
80000078:	f1402573          	csrr	a0,mhartid
8000007c:	4585                	li	a1,1
8000007e:	00b57063          	bgeu	a0,a1,8000007e <_start+0x7e>
80000082:	00150113          	addi	sp,a0,1
80000086:	0146                	slli	sp,sp,0x11
80000088:	9112                	add	sp,sp,tp
8000008a:	01151613          	slli	a2,a0,0x11
8000008e:	9232                	add	tp,tp,a2
80000090:	6ec0306f          	j	8000377c <_init>

80000094 <trap_entry>:
80000094:	716d                	addi	sp,sp,-272
80000096:	c206                	sw	ra,4(sp)
80000098:	c40a                	sw	sp,8(sp)
8000009a:	c60e                	sw	gp,12(sp)
8000009c:	c812                	sw	tp,16(sp)
8000009e:	ca16                	sw	t0,20(sp)
800000a0:	cc1a                	sw	t1,24(sp)
800000a2:	ce1e                	sw	t2,28(sp)
800000a4:	d022                	sw	s0,32(sp)
800000a6:	d226                	sw	s1,36(sp)
800000a8:	d42a                	sw	a0,40(sp)
800000aa:	d62e                	sw	a1,44(sp)
800000ac:	d832                	sw	a2,48(sp)
800000ae:	da36                	sw	a3,52(sp)
800000b0:	dc3a                	sw	a4,56(sp)
800000b2:	de3e                	sw	a5,60(sp)
800000b4:	c0c2                	sw	a6,64(sp)
800000b6:	c2c6                	sw	a7,68(sp)
800000b8:	c4ca                	sw	s2,72(sp)
800000ba:	c6ce                	sw	s3,76(sp)
800000bc:	c8d2                	sw	s4,80(sp)
800000be:	cad6                	sw	s5,84(sp)
800000c0:	ccda                	sw	s6,88(sp)
800000c2:	cede                	sw	s7,92(sp)
800000c4:	d0e2                	sw	s8,96(sp)
800000c6:	d2e6                	sw	s9,100(sp)
800000c8:	d4ea                	sw	s10,104(sp)
800000ca:	d6ee                	sw	s11,108(sp)
800000cc:	d8f2                	sw	t3,112(sp)
800000ce:	daf6                	sw	t4,116(sp)
800000d0:	dcfa                	sw	t5,120(sp)
800000d2:	defe                	sw	t6,124(sp)
800000d4:	34202573          	csrr	a0,mcause
800000d8:	341025f3          	csrr	a1,mepc
800000dc:	860a                	mv	a2,sp
800000de:	4ce030ef          	jal	800035ac <handle_trap>
800000e2:	34151073          	csrw	mepc,a0
800000e6:	6289                	lui	t0,0x2
800000e8:	80028293          	addi	t0,t0,-2048 # 1800 <buflen.0+0x17c0>
800000ec:	3002a073          	csrs	mstatus,t0
800000f0:	4092                	lw	ra,4(sp)
800000f2:	4122                	lw	sp,8(sp)
800000f4:	41b2                	lw	gp,12(sp)
800000f6:	4242                	lw	tp,16(sp)
800000f8:	42d2                	lw	t0,20(sp)
800000fa:	4362                	lw	t1,24(sp)
800000fc:	43f2                	lw	t2,28(sp)
800000fe:	5402                	lw	s0,32(sp)
80000100:	5492                	lw	s1,36(sp)
80000102:	5522                	lw	a0,40(sp)
80000104:	55b2                	lw	a1,44(sp)
80000106:	5642                	lw	a2,48(sp)
80000108:	56d2                	lw	a3,52(sp)
8000010a:	5762                	lw	a4,56(sp)
8000010c:	57f2                	lw	a5,60(sp)
8000010e:	4806                	lw	a6,64(sp)
80000110:	4896                	lw	a7,68(sp)
80000112:	4926                	lw	s2,72(sp)
80000114:	49b6                	lw	s3,76(sp)
80000116:	4a46                	lw	s4,80(sp)
80000118:	4ad6                	lw	s5,84(sp)
8000011a:	4b66                	lw	s6,88(sp)
8000011c:	4bf6                	lw	s7,92(sp)
8000011e:	5c06                	lw	s8,96(sp)
80000120:	5c96                	lw	s9,100(sp)
80000122:	5d26                	lw	s10,104(sp)
80000124:	5db6                	lw	s11,108(sp)
80000126:	5e46                	lw	t3,112(sp)
80000128:	5ed6                	lw	t4,116(sp)
8000012a:	5f66                	lw	t5,120(sp)
8000012c:	5ff6                	lw	t6,124(sp)
8000012e:	6151                	addi	sp,sp,272
80000130:	30200073          	mret
80000134:	5501                	li	a0,-32
80000136:	a029                	j	80000140 <_exit>
80000138:	6e1040ef          	jal	80005018 <main>
8000013c:	a011                	j	80000140 <_exit>
8000013e:	a009                	j	80000140 <_exit>

80000140 <_exit>:
80000140:	0506                	slli	a0,a0,0x1
80000142:	0505                	addi	a0,a0,1
80000144:	00001f17          	auipc	t5,0x1
80000148:	eaaf2e23          	sw	a0,-324(t5) # 80001000 <tohost>
8000014c:	0001                	nop
8000014e:	a001                	j	8000014e <_exit+0xe>
80000150:	0001                	nop

Disassembly of section .text:

80003000 <verify>:
80003000:	4785                	li	a5,1
80003002:	02a7dc63          	bge	a5,a0,8000303a <verify+0x3a>
80003006:	ffe57e13          	andi	t3,a0,-2
8000300a:	87ae                	mv	a5,a1
8000300c:	8732                	mv	a4,a2
8000300e:	4681                	li	a3,0
80003010:	a809                	j	80003022 <verify+0x22>
80003012:	00472803          	lw	a6,4(a4)
80003016:	0689                	addi	a3,a3,2
80003018:	0721                	addi	a4,a4,8
8000301a:	01031e63          	bne	t1,a6,80003036 <verify+0x36>
8000301e:	01c6de63          	bge	a3,t3,8000303a <verify+0x3a>
80003022:	0007a883          	lw	a7,0(a5)
80003026:	00072803          	lw	a6,0(a4)
8000302a:	0047a303          	lw	t1,4(a5)
8000302e:	07a1                	addi	a5,a5,8
80003030:	ff0881e3          	beq	a7,a6,80003012 <verify+0x12>
80003034:	0685                	addi	a3,a3,1
80003036:	8536                	mv	a0,a3
80003038:	8082                	ret
8000303a:	00157793          	andi	a5,a0,1
8000303e:	4681                	li	a3,0
80003040:	dbfd                	beqz	a5,80003036 <verify+0x36>
80003042:	00251793          	slli	a5,a0,0x2
80003046:	95be                	add	a1,a1,a5
80003048:	963e                	add	a2,a2,a5
8000304a:	ffc5a683          	lw	a3,-4(a1)
8000304e:	ffc62783          	lw	a5,-4(a2)
80003052:	8e9d                	sub	a3,a3,a5
80003054:	00d036b3          	snez	a3,a3
80003058:	40d006b3          	neg	a3,a3
8000305c:	8ee9                	and	a3,a3,a0
8000305e:	8536                	mv	a0,a3
80003060:	8082                	ret

80003062 <verifyDouble>:
80003062:	7179                	addi	sp,sp,-48
80003064:	cc52                	sw	s4,24(sp)
80003066:	c462                	sw	s8,8(sp)
80003068:	c266                	sw	s9,4(sp)
8000306a:	d606                	sw	ra,44(sp)
8000306c:	4785                	li	a5,1
8000306e:	8a2a                	mv	s4,a0
80003070:	8c2e                	mv	s8,a1
80003072:	8cb2                	mv	s9,a2
80003074:	08a7d163          	bge	a5,a0,800030f6 <verifyDouble+0x94>
80003078:	d226                	sw	s1,36(sp)
8000307a:	d04a                	sw	s2,32(sp)
8000307c:	ce4e                	sw	s3,28(sp)
8000307e:	ca56                	sw	s5,20(sp)
80003080:	d422                	sw	s0,40(sp)
80003082:	c85a                	sw	s6,16(sp)
80003084:	c65e                	sw	s7,12(sp)
80003086:	ffe57a93          	andi	s5,a0,-2
8000308a:	892e                	mv	s2,a1
8000308c:	84b2                	mv	s1,a2
8000308e:	4981                	li	s3,0
80003090:	00092603          	lw	a2,0(s2)
80003094:	40cc                	lw	a1,4(s1)
80003096:	00492683          	lw	a3,4(s2)
8000309a:	4088                	lw	a0,0(s1)
8000309c:	00892b03          	lw	s6,8(s2)
800030a0:	00c92b83          	lw	s7,12(s2)
800030a4:	771000ef          	jal	80004014 <__eqdf2>
800030a8:	842a                	mv	s0,a0
800030aa:	44cc                	lw	a1,12(s1)
800030ac:	4488                	lw	a0,8(s1)
800030ae:	865a                	mv	a2,s6
800030b0:	86de                	mv	a3,s7
800030b2:	00143413          	seqz	s0,s0
800030b6:	75f000ef          	jal	80004014 <__eqdf2>
800030ba:	c10d                	beqz	a0,800030dc <verifyDouble+0x7a>
800030bc:	00198513          	addi	a0,s3,1
800030c0:	9522                	add	a0,a0,s0
800030c2:	5492                	lw	s1,36(sp)
800030c4:	5422                	lw	s0,40(sp)
800030c6:	5902                	lw	s2,32(sp)
800030c8:	49f2                	lw	s3,28(sp)
800030ca:	4ad2                	lw	s5,20(sp)
800030c6:	5902                	lw	s2,32(sp)
800030c8:	49f2                	lw	s3,28(sp)
800030ca:	4ad2                	lw	s5,20(sp)
800030cc:	4b42                	lw	s6,16(sp)
800030ce:	4bb2                	lw	s7,12(sp)
800030d0:	50b2                	lw	ra,44(sp)
800030d2:	4a62                	lw	s4,24(sp)
800030d4:	4c22                	lw	s8,8(sp)
800030d6:	4c92                	lw	s9,4(sp)
800030d8:	6145                	addi	sp,sp,48
800030da:	8082                	ret
800030dc:	d065                	beqz	s0,800030bc <verifyDouble+0x5a>
800030de:	0989                	addi	s3,s3,2
800030e0:	0941                	addi	s2,s2,16
800030e2:	04c1                	addi	s1,s1,16
800030e4:	fb59c6e3          	blt	s3,s5,80003090 <verifyDouble+0x2e>
800030e8:	5422                	lw	s0,40(sp)
800030ea:	5492                	lw	s1,36(sp)
800030ec:	5902                	lw	s2,32(sp)
800030ee:	49f2                	lw	s3,28(sp)
800030f0:	4ad2                	lw	s5,20(sp)
800030f2:	4b42                	lw	s6,16(sp)
800030f4:	4bb2                	lw	s7,12(sp)
800030f6:	001a7793          	andi	a5,s4,1
800030fa:	4501                	li	a0,0
800030fc:	dbf1                	beqz	a5,800030d0 <verifyDouble+0x6e>
800030fe:	003a1793          	slli	a5,s4,0x3
80003102:	00fc0733          	add	a4,s8,a5
80003106:	97e6                	add	a5,a5,s9
80003108:	ff872503          	lw	a0,-8(a4)
8000310c:	ff87a603          	lw	a2,-8(a5)
80003110:	ffc72583          	lw	a1,-4(a4)
80003114:	ffc7a683          	lw	a3,-4(a5)
80003118:	6fd000ef          	jal	80004014 <__eqdf2>
8000311c:	50b2                	lw	ra,44(sp)
8000311e:	00a03533          	snez	a0,a0
80003122:	40a00533          	neg	a0,a0
80003126:	4c22                	lw	s8,8(sp)
80003128:	4c92                	lw	s9,4(sp)
8000312a:	00aa7533          	and	a0,s4,a0
8000312e:	4a62                	lw	s4,24(sp)
80003130:	6145                	addi	sp,sp,48
80003132:	8082                	ret

80003134 <barrier>:
80003134:	8082                	ret

80003136 <vprintfmt>:
80003136:	714d                	addi	sp,sp,-336
80003138:	14812423          	sw	s0,328(sp)
8000313c:	14912223          	sw	s1,324(sp)
80003140:	15212023          	sw	s2,320(sp)
80003144:	13512a23          	sw	s5,308(sp)
80003148:	14112623          	sw	ra,332(sp)
8000314c:	13312e23          	sw	s3,316(sp)
80003150:	13412c23          	sw	s4,312(sp)
80003154:	13712623          	sw	s7,300(sp)
80003158:	13812423          	sw	s8,296(sp)
8000315c:	13912223          	sw	s9,292(sp)
80003160:	13a12023          	sw	s10,288(sp)
80003164:	84aa                	mv	s1,a0
80003166:	8432                	mv	s0,a2
80003168:	c636                	sw	a3,12(sp)
8000316a:	892e                	mv	s2,a1
8000316c:	02500a93          	li	s5,37
80003170:	a029                	j	8000317a <vprintfmt+0x44>
80003172:	c531                	beqz	a0,800031be <vprintfmt+0x88>
80003174:	85ca                	mv	a1,s2
80003176:	0405                	addi	s0,s0,1
80003178:	9482                	jalr	s1
8000317a:	00044503          	lbu	a0,0(s0)
8000317e:	ff551ae3          	bne	a0,s5,80003172 <vprintfmt+0x3c>
80003182:	00144683          	lbu	a3,1(s0)
80003186:	00140a13          	addi	s4,s0,1
8000318a:	59fd                	li	s3,-1
8000318c:	02000793          	li	a5,32
80003190:	8752                	mv	a4,s4
80003192:	8c4e                	mv	s8,s3
80003194:	c43e                	sw	a5,8(sp)
80003196:	4601                	li	a2,0
80003198:	fdd68793          	addi	a5,a3,-35
8000319c:	0ff7f793          	zext.b	a5,a5
800031a0:	05500593          	li	a1,85
800031a4:	00170413          	addi	s0,a4,1
800031a8:	06f5e163          	bltu	a1,a5,8000320a <vprintfmt+0xd4>
800031ac:	00003597          	auipc	a1,0x3
800031b0:	f0058593          	addi	a1,a1,-256 # 800060ac <_end_text+0xac>
800031b4:	20b7c7b3          	sh2add	a5,a5,a1
800031b8:	439c                	lw	a5,0(a5)
800031ba:	97ae                	add	a5,a5,a1
800031bc:	8782                	jr	a5
800031be:	14c12083          	lw	ra,332(sp)
800031c2:	14812403          	lw	s0,328(sp)
800031c6:	14412483          	lw	s1,324(sp)
800031ca:	14012903          	lw	s2,320(sp)
800031ce:	13c12983          	lw	s3,316(sp)
800031d2:	13812a03          	lw	s4,312(sp)
800031d6:	13412a83          	lw	s5,308(sp)
800031da:	12c12b83          	lw	s7,300(sp)
800031de:	12812c03          	lw	s8,296(sp)
800031e2:	12412c83          	lw	s9,292(sp)
800031e6:	12012d03          	lw	s10,288(sp)
800031ea:	6171                	addi	sp,sp,336
800031ec:	8082                	ret
800031ee:	c436                	sw	a3,8(sp)
800031f0:	00174683          	lbu	a3,1(a4)
800031f4:	05500593          	li	a1,85
800031f8:	8722                	mv	a4,s0
800031fa:	fdd68793          	addi	a5,a3,-35
800031fe:	0ff7f793          	zext.b	a5,a5
80003202:	00170413          	addi	s0,a4,1
80003206:	faf5f3e3          	bgeu	a1,a5,800031ac <vprintfmt+0x76>
8000320a:	85ca                	mv	a1,s2
8000320c:	02500513          	li	a0,37
80003210:	9482                	jalr	s1
80003212:	8452                	mv	s0,s4
80003214:	b79d                	j	8000317a <vprintfmt+0x44>
80003216:	fd068993          	addi	s3,a3,-48
8000321a:	00174683          	lbu	a3,1(a4)
8000321e:	4525                	li	a0,9
80003220:	fd068793          	addi	a5,a3,-48
80003224:	26f56f63          	bltu	a0,a5,800034a2 <vprintfmt+0x36c>
80003228:	87b6                	mv	a5,a3
8000322a:	8722                	mv	a4,s0
8000322c:	2139c9b3          	sh2add	s3,s3,s3
80003230:	0705                	addi	a4,a4,1
80003232:	20f9a9b3          	sh1add	s3,s3,a5
80003236:	00074783          	lbu	a5,0(a4)
8000323a:	fd098993          	addi	s3,s3,-48
8000323e:	fd078593          	addi	a1,a5,-48
80003242:	86be                	mv	a3,a5
80003244:	feb574e3          	bgeu	a0,a1,8000322c <vprintfmt+0xf6>
80003248:	f40c58e3          	bgez	s8,80003198 <vprintfmt+0x62>
8000324c:	8c4e                	mv	s8,s3
8000324e:	59fd                	li	s3,-1
80003250:	b7a1                	j	80003198 <vprintfmt+0x62>
80003252:	00174683          	lbu	a3,1(a4)
80003256:	8722                	mv	a4,s0
80003258:	b781                	j	80003198 <vprintfmt+0x62>
8000325a:	85ca                	mv	a1,s2
8000325c:	02500513          	li	a0,37
80003260:	9482                	jalr	s1
80003262:	bf21                	j	8000317a <vprintfmt+0x44>
80003264:	47b2                	lw	a5,12(sp)
80003266:	00174683          	lbu	a3,1(a4)
8000326a:	8722                	mv	a4,s0
8000326c:	0007a983          	lw	s3,0(a5)
80003270:	0791                	addi	a5,a5,4
80003272:	c63e                	sw	a5,12(sp)
80003274:	bfd1                	j	80003248 <vprintfmt+0x112>
80003276:	85ca                	mv	a1,s2
80003278:	03000513          	li	a0,48
8000327c:	13612823          	sw	s6,304(sp)
80003280:	9482                	jalr	s1
80003282:	85ca                	mv	a1,s2
80003284:	07800513          	li	a0,120
80003288:	9482                	jalr	s1
8000328a:	4bc1                	li	s7,16
8000328c:	4d01                	li	s10,0
8000328e:	47b2                	lw	a5,12(sp)
80003290:	4c81                	li	s9,0
80003292:	0007a983          	lw	s3,0(a5)
80003296:	0791                	addi	a5,a5,4
80003298:	c63e                	sw	a5,12(sp)
8000329a:	865e                	mv	a2,s7
8000329c:	4681                	li	a3,0
8000329e:	854e                	mv	a0,s3
800032a0:	85e6                	mv	a1,s9
800032a2:	1b9000ef          	jal	80003c5a <__umoddi3>
800032a6:	c82a                	sw	a0,16(sp)
800032a8:	179d0663          	beq	s10,s9,80003414 <vprintfmt+0x2de>
800032ac:	11b12e23          	sw	s11,284(sp)
800032b0:	4b05                	li	s6,1
800032b2:	01410d93          	addi	s11,sp,20
800032b6:	854e                	mv	a0,s3
800032b8:	85e6                	mv	a1,s9
800032ba:	865e                	mv	a2,s7
800032bc:	4681                	li	a3,0
800032be:	253d                	jal	800038ec <__udivdi3>
800032c0:	865e                	mv	a2,s7
800032c2:	4681                	li	a3,0
800032c4:	89aa                	mv	s3,a0
800032c6:	8cae                	mv	s9,a1
800032c8:	193000ef          	jal	80003c5a <__umoddi3>
800032cc:	00ada023          	sw	a0,0(s11)
800032d0:	8a5a                	mv	s4,s6
800032d2:	0d91                	addi	s11,s11,4
800032d4:	0b05                	addi	s6,s6,1
800032d6:	ff9d10e3          	bne	s10,s9,800032b6 <vprintfmt+0x180>
800032da:	fd79fee3          	bgeu	s3,s7,800032b6 <vprintfmt+0x180>
800032de:	11c12d83          	lw	s11,284(sp)
800032e2:	fffc0b93          	addi	s7,s8,-1
800032e6:	fffb0993          	addi	s3,s6,-1
800032ea:	018b5863          	bge	s6,s8,800032fa <vprintfmt+0x1c4>
800032ee:	4522                	lw	a0,8(sp)
800032f0:	85ca                	mv	a1,s2
800032f2:	1bfd                	addi	s7,s7,-1
800032f4:	9482                	jalr	s1
800032f6:	ff799ce3          	bne	s3,s7,800032ee <vprintfmt+0x1b8>
800032fa:	01010993          	addi	s3,sp,16
800032fe:	213a4a33          	sh2add	s4,s4,s3
80003302:	4b25                	li	s6,9
80003304:	a011                	j	80003308 <vprintfmt+0x1d2>
80003306:	1a71                	addi	s4,s4,-4
80003308:	000a2783          	lw	a5,0(s4)
8000330c:	03000513          	li	a0,48
80003310:	00fb7463          	bgeu	s6,a5,80003318 <vprintfmt+0x1e2>
80003314:	05700513          	li	a0,87
80003318:	953e                	add	a0,a0,a5
8000331a:	85ca                	mv	a1,s2
8000331c:	9482                	jalr	s1
8000331e:	ff4994e3          	bne	s3,s4,80003306 <vprintfmt+0x1d0>
80003322:	13012b03          	lw	s6,304(sp)
80003326:	bd91                	j	8000317a <vprintfmt+0x44>
80003328:	13612823          	sw	s6,304(sp)
8000332c:	4785                	li	a5,1
8000332e:	0ec7c863          	blt	a5,a2,8000341e <vprintfmt+0x2e8>
80003332:	47b2                	lw	a5,12(sp)
80003334:	0007a983          	lw	s3,0(a5)
80003338:	0791                	addi	a5,a5,4
8000333a:	c63e                	sw	a5,12(sp)
8000333c:	41f9dc93          	srai	s9,s3,0x1f
80003340:	000cde63          	bgez	s9,8000335c <vprintfmt+0x226>
80003344:	85ca                	mv	a1,s2
80003346:	02d00513          	li	a0,45
8000334a:	9482                	jalr	s1
8000334c:	01303733          	snez	a4,s3
80003350:	419007b3          	neg	a5,s9
80003354:	40e78cb3          	sub	s9,a5,a4
80003358:	413009b3          	neg	s3,s3
8000335c:	4ba9                	li	s7,10
8000335e:	4d01                	li	s10,0
80003360:	bf2d                	j	8000329a <vprintfmt+0x164>
80003362:	00174683          	lbu	a3,1(a4)
80003366:	0605                	addi	a2,a2,1
80003368:	8722                	mv	a4,s0
8000336a:	b53d                	j	80003198 <vprintfmt+0x62>
8000336c:	13612823          	sw	s6,304(sp)
80003370:	4bc1                	li	s7,16
80003372:	4d01                	li	s10,0
80003374:	4785                	li	a5,1
80003376:	f0c7dce3          	bge	a5,a2,8000328e <vprintfmt+0x158>
8000337a:	47b2                	lw	a5,12(sp)
8000337c:	079d                	addi	a5,a5,7
8000337e:	9be1                	andi	a5,a5,-8
80003380:	00878713          	addi	a4,a5,8
80003384:	0007a983          	lw	s3,0(a5)
80003388:	0047ac83          	lw	s9,4(a5)
8000338c:	c63a                	sw	a4,12(sp)
8000338e:	b731                	j	8000329a <vprintfmt+0x164>
80003390:	47b2                	lw	a5,12(sp)
80003392:	01802733          	sgtz	a4,s8
80003396:	11b12e23          	sw	s11,284(sp)
8000339a:	0007aa03          	lw	s4,0(a5)
8000339e:	47a2                	lw	a5,8(sp)
800033a0:	fd378793          	addi	a5,a5,-45
800033a4:	00f037b3          	snez	a5,a5
800033a8:	8f7d                	and	a4,a4,a5
800033aa:	47b2                	lw	a5,12(sp)
800033ac:	00478d93          	addi	s11,a5,4
800033b0:	080a0c63          	beqz	s4,80003448 <vprintfmt+0x312>
800033b4:	eb4d                	bnez	a4,80003466 <vprintfmt+0x330>
800033b6:	000a4503          	lbu	a0,0(s4)
800033ba:	c115                	beqz	a0,800033de <vprintfmt+0x2a8>
800033bc:	13612823          	sw	s6,304(sp)
800033c0:	5b7d                	li	s6,-1
800033c2:	0009c563          	bltz	s3,800033cc <vprintfmt+0x296>
800033c6:	19fd                	addi	s3,s3,-1
800033c8:	01698963          	beq	s3,s6,800033da <vprintfmt+0x2a4>
800033cc:	85ca                	mv	a1,s2
800033ce:	9482                	jalr	s1
800033d0:	001a4503          	lbu	a0,1(s4)
800033d4:	0a05                	addi	s4,s4,1
800033d6:	1c7d                	addi	s8,s8,-1
800033d8:	f56d                	bnez	a0,800033c2 <vprintfmt+0x28c>
800033da:	13012b03          	lw	s6,304(sp)
800033de:	01805963          	blez	s8,800033f0 <vprintfmt+0x2ba>
800033e2:	85ca                	mv	a1,s2
800033e4:	02000513          	li	a0,32
800033e8:	1c7d                	addi	s8,s8,-1
800033ea:	9482                	jalr	s1
800033ec:	fe0c1be3          	bnez	s8,800033e2 <vprintfmt+0x2ac>
800033f0:	c66e                	sw	s11,12(sp)
800033f2:	11c12d83          	lw	s11,284(sp)
800033f6:	b351                	j	8000317a <vprintfmt+0x44>
800033f8:	00174683          	lbu	a3,1(a4)
800033fc:	0a0c6c33          	max	s8,s8,zero
80003400:	8722                	mv	a4,s0
80003402:	bb59                	j	80003198 <vprintfmt+0x62>
80003404:	47b2                	lw	a5,12(sp)
80003406:	85ca                	mv	a1,s2
80003408:	4388                	lw	a0,0(a5)
8000340a:	9482                	jalr	s1
8000340c:	47b2                	lw	a5,12(sp)
8000340e:	0791                	addi	a5,a5,4
80003410:	c63e                	sw	a5,12(sp)
80003412:	b3a5                	j	8000317a <vprintfmt+0x44>
80003414:	e979fce3          	bgeu	s3,s7,800032ac <vprintfmt+0x176>
80003418:	4a01                	li	s4,0
8000341a:	4b05                	li	s6,1
8000341c:	b5d9                	j	800032e2 <vprintfmt+0x1ac>
8000341e:	47b2                	lw	a5,12(sp)
80003420:	079d                	addi	a5,a5,7
80003422:	9be1                	andi	a5,a5,-8
80003424:	00878713          	addi	a4,a5,8
80003428:	0007a983          	lw	s3,0(a5)
8000342c:	0047ac83          	lw	s9,4(a5)
80003430:	c63a                	sw	a4,12(sp)
80003432:	b739                	j	80003340 <vprintfmt+0x20a>
80003434:	13612823          	sw	s6,304(sp)
80003438:	4ba9                	li	s7,10
8000343a:	4d01                	li	s10,0
8000343c:	bf25                	j	80003374 <vprintfmt+0x23e>
8000343e:	13612823          	sw	s6,304(sp)
80003442:	4ba1                	li	s7,8
80003444:	4d01                	li	s10,0
80003446:	b73d                	j	80003374 <vprintfmt+0x23e>
80003448:	eb19                	bnez	a4,8000345e <vprintfmt+0x328>
8000344a:	13612823          	sw	s6,304(sp)
8000344e:	00003a17          	auipc	s4,0x3
80003452:	bb2a0a13          	addi	s4,s4,-1102 # 80006000 <_end_text>
80003456:	02800513          	li	a0,40
8000345a:	5b7d                	li	s6,-1
8000345c:	b79d                	j	800033c2 <vprintfmt+0x28c>
8000345e:	00003a17          	auipc	s4,0x3
80003462:	ba2a0a13          	addi	s4,s4,-1118 # 80006000 <_end_text>
80003466:	87d2                	mv	a5,s4
80003468:	013a06b3          	add	a3,s4,s3
8000346c:	00099663          	bnez	s3,80003478 <vprintfmt+0x342>
80003470:	a829                	j	8000348a <vprintfmt+0x354>
80003472:	0785                	addi	a5,a5,1
80003474:	00d78563          	beq	a5,a3,8000347e <vprintfmt+0x348>
80003478:	0007c703          	lbu	a4,0(a5)
8000347c:	fb7d                	bnez	a4,80003472 <vprintfmt+0x33c>
8000347e:	414787b3          	sub	a5,a5,s4
80003482:	40fc0c33          	sub	s8,s8,a5
80003486:	01805863          	blez	s8,80003496 <vprintfmt+0x360>
8000348a:	4522                	lw	a0,8(sp)
8000348c:	85ca                	mv	a1,s2
8000348e:	1c7d                	addi	s8,s8,-1
80003490:	9482                	jalr	s1
80003492:	fe0c1ce3          	bnez	s8,8000348a <vprintfmt+0x354>
80003496:	000a4503          	lbu	a0,0(s4)
8000349a:	d939                	beqz	a0,800033f0 <vprintfmt+0x2ba>
8000349c:	13612823          	sw	s6,304(sp)
800034a0:	b705                	j	800033c0 <vprintfmt+0x28a>
800034a2:	8722                	mv	a4,s0
800034a4:	b355                	j	80003248 <vprintfmt+0x112>

800034a6 <sprintf_putch>:
800034a6:	419c                	lw	a5,0(a1)
800034a8:	00a78023          	sb	a0,0(a5)
800034ac:	419c                	lw	a5,0(a1)
800034ae:	0785                	addi	a5,a5,1
800034b0:	c19c                	sw	a5,0(a1)
800034b2:	8082                	ret

800034b4 <putchar>:
800034b4:	04022783          	lw	a5,64(tp) # 40 <buflen.0>
800034b8:	00020713          	mv	a4,tp
800034bc:	711d                	addi	sp,sp,-96
800034be:	973e                	add	a4,a4,a5
800034c0:	00178813          	addi	a6,a5,1
800034c4:	05022023          	sw	a6,64(tp) # 40 <buflen.0>
800034c8:	00a70023          	sb	a0,0(a4)
800034cc:	03f10693          	addi	a3,sp,63
800034d0:	fc178793          	addi	a5,a5,-63
800034d4:	fc06f693          	andi	a3,a3,-64
800034d8:	c791                	beqz	a5,800034e4 <putchar+0x30>
800034da:	1559                	addi	a0,a0,-10
800034dc:	c501                	beqz	a0,800034e4 <putchar+0x30>
800034de:	4501                	li	a0,0
800034e0:	6125                	addi	sp,sp,96
800034e2:	8082                	ret
800034e4:	04000793          	li	a5,64
800034e8:	c29c                	sw	a5,0(a3)
800034ea:	4785                	li	a5,1
800034ec:	c2dc                	sw	a5,4(a3)
800034ee:	00020613          	mv	a2,tp
800034f2:	c690                	sw	a2,8(a3)
800034f4:	0106a623          	sw	a6,12(a3)
800034f8:	ffffe617          	auipc	a2,0xffffe
800034fc:	b0860613          	addi	a2,a2,-1272 # 80001000 <tohost>
80003500:	c214                	sw	a3,0(a2)
80003502:	4781                	li	a5,0
80003504:	c25c                	sw	a5,4(a2)
80003506:	ffffe617          	auipc	a2,0xffffe
8000350a:	b3a60613          	addi	a2,a2,-1222 # 80001040 <fromhost>
8000350e:	4218                	lw	a4,0(a2)
80003510:	425c                	lw	a5,4(a2)
80003512:	8f5d                	or	a4,a4,a5
80003514:	df6d                	beqz	a4,8000350e <putchar+0x5a>
80003516:	4781                	li	a5,0
80003518:	c21c                	sw	a5,0(a2)
8000351a:	4801                	li	a6,0
8000351c:	01062223          	sw	a6,4(a2)
80003520:	04022023          	sw	zero,64(tp) # 40 <buflen.0>
80003524:	429c                	lw	a5,0(a3)
80003526:	4501                	li	a0,0
80003528:	6125                	addi	sp,sp,96
8000352a:	8082                	ret

8000352c <setStats>:
8000352c:	b0002773          	csrr	a4,mcycle
80003530:	00004797          	auipc	a5,0x4
80003534:	ad878793          	addi	a5,a5,-1320 # 80007008 <counters>
80003538:	c511                	beqz	a0,80003544 <setStats+0x18>
8000353a:	c398                	sw	a4,0(a5)
8000353c:	b0202773          	csrr	a4,minstret
80003540:	c3d8                	sw	a4,4(a5)
80003542:	8082                	ret
80003544:	4394                	lw	a3,0(a5)
80003546:	00003617          	auipc	a2,0x3
8000354a:	ac660613          	addi	a2,a2,-1338 # 8000600c <_end_text+0xc>
8000354e:	00004597          	auipc	a1,0x4
80003552:	aac5a923          	sw	a2,-1358(a1) # 80007000 <counter_names>
80003556:	8f15                	sub	a4,a4,a3
80003558:	c398                	sw	a4,0(a5)
8000355a:	b0202773          	csrr	a4,minstret
8000355e:	43d4                	lw	a3,4(a5)
80003560:	00003617          	auipc	a2,0x3
80003564:	ab460613          	addi	a2,a2,-1356 # 80006014 <_end_text+0x14>
80003568:	00004597          	auipc	a1,0x4
8000356c:	a8c5ae23          	sw	a2,-1380(a1) # 80007004 <counter_names+0x4>
80003570:	8f15                	sub	a4,a4,a3
80003572:	c3d8                	sw	a4,4(a5)
80003574:	8082                	ret

80003576 <getStats>:
80003576:	00004797          	auipc	a5,0x4
8000357a:	a9278793          	addi	a5,a5,-1390 # 80007008 <counters>
8000357e:	20f54533          	sh2add	a0,a0,a5
80003582:	4108                	lw	a0,0(a0)
80003584:	8082                	ret

80003586 <tohost_exit>:
80003586:	00f55713          	srli	a4,a0,0xf
8000358a:	01151793          	slli	a5,a0,0x11
8000358e:	0742                	slli	a4,a4,0x10
80003590:	83c1                	srli	a5,a5,0x10
80003592:	97ba                	add	a5,a5,a4
80003594:	0017e613          	ori	a2,a5,1
80003598:	ffffe797          	auipc	a5,0xffffe
8000359c:	a6878793          	addi	a5,a5,-1432 # 80001000 <tohost>
800035a0:	01f55693          	srli	a3,a0,0x1f
800035a4:	c390                	sw	a2,0(a5)
800035a6:	c3d4                	sw	a3,4(a5)
800035a8:	0001                	nop
800035aa:	a001                	j	800035aa <tohost_exit+0x24>

800035ac <handle_trap>:
800035ac:	1141                	addi	sp,sp,-16
800035ae:	53900513          	li	a0,1337
800035b2:	c606                	sw	ra,12(sp)
800035b4:	3fc9                	jal	80003586 <tohost_exit>

800035b6 <exit>:
800035b6:	1141                	addi	sp,sp,-16
800035b8:	c606                	sw	ra,12(sp)
800035ba:	37f1                	jal	80003586 <tohost_exit>

800035bc <printstr>:
800035bc:	00054783          	lbu	a5,0(a0)
800035c0:	711d                	addi	sp,sp,-96
800035c2:	03f10613          	addi	a2,sp,63
800035c6:	fc067613          	andi	a2,a2,-64
800035ca:	c799                	beqz	a5,800035d8 <printstr+0x1c>
800035cc:	87aa                	mv	a5,a0
800035ce:	0017c703          	lbu	a4,1(a5)
800035d2:	0785                	addi	a5,a5,1
800035d4:	ff6d                	bnez	a4,800035ce <printstr+0x12>
800035d6:	8f89                	sub	a5,a5,a0
800035d8:	04000713          	li	a4,64
800035dc:	c218                	sw	a4,0(a2)
800035de:	4705                	li	a4,1
800035e0:	c258                	sw	a4,4(a2)
800035e2:	c608                	sw	a0,8(a2)
800035e4:	c65c                	sw	a5,12(a2)
800035e6:	ffffe697          	auipc	a3,0xffffe
800035ea:	a1a68693          	addi	a3,a3,-1510 # 80001000 <tohost>
800035ee:	c290                	sw	a2,0(a3)
800035f0:	4781                	li	a5,0
800035f2:	c2dc                	sw	a5,4(a3)
800035f4:	ffffe697          	auipc	a3,0xffffe
800035f8:	a4c68693          	addi	a3,a3,-1460 # 80001040 <fromhost>
800035fc:	4298                	lw	a4,0(a3)
800035fe:	42dc                	lw	a5,4(a3)
80003600:	8f5d                	or	a4,a4,a5
80003602:	df6d                	beqz	a4,800035fc <printstr+0x40>
80003604:	4781                	li	a5,0
80003606:	c29c                	sw	a5,0(a3)
80003608:	4801                	li	a6,0
8000360a:	0106a223          	sw	a6,4(a3)
8000360e:	421c                	lw	a5,0(a2)
80003610:	6125                	addi	sp,sp,96
80003612:	8082                	ret

80003614 <thread_entry>:
80003614:	e111                	bnez	a0,80003618 <thread_entry+0x4>
80003616:	8082                	ret
80003618:	a001                	j	80003618 <thread_entry+0x4>

8000361a <puts>:
8000361a:	1141                	addi	sp,sp,-16
8000361c:	c422                	sw	s0,8(sp)
8000361e:	c606                	sw	ra,12(sp)
80003620:	842a                	mv	s0,a0
80003622:	00054503          	lbu	a0,0(a0)
80003626:	c511                	beqz	a0,80003632 <puts+0x18>
80003628:	0405                	addi	s0,s0,1
8000362a:	3569                	jal	800034b4 <putchar>
8000362c:	00044503          	lbu	a0,0(s0)
80003630:	fd65                	bnez	a0,80003628 <puts+0xe>
80003632:	4422                	lw	s0,8(sp)
80003634:	40b2                	lw	ra,12(sp)
80003636:	4529                	li	a0,10
80003638:	0141                	addi	sp,sp,16
8000363a:	bdad                	j	800034b4 <putchar>

8000363c <printhex>:
8000363c:	7179                	addi	sp,sp,-48
8000363e:	872a                	mv	a4,a0
80003640:	d606                	sw	ra,44(sp)
80003642:	0068                	addi	a0,sp,12
80003644:	01b10613          	addi	a2,sp,27
80003648:	4825                	li	a6,9
8000364a:	a011                	j	8000364e <printhex+0x12>
8000364c:	167d                	addi	a2,a2,-1
8000364e:	00f77693          	andi	a3,a4,15
80003652:	00d837b3          	sltu	a5,a6,a3
80003656:	40f007b3          	neg	a5,a5
8000365a:	0277f793          	andi	a5,a5,39
8000365e:	03078793          	addi	a5,a5,48
80003662:	96be                	add	a3,a3,a5
80003664:	8311                	srli	a4,a4,0x4
80003666:	01c59793          	slli	a5,a1,0x1c
8000366a:	00d60023          	sb	a3,0(a2)
8000366e:	973e                	add	a4,a4,a5
80003670:	8191                	srli	a1,a1,0x4
80003672:	fcc51de3          	bne	a0,a2,8000364c <printhex+0x10>
80003676:	00010e23          	sb	zero,28(sp)
8000367a:	3789                	jal	800035bc <printstr>
8000367c:	50b2                	lw	ra,44(sp)
8000367e:	6145                	addi	sp,sp,48
80003680:	8082                	ret

80003682 <printf>:
80003682:	7139                	addi	sp,sp,-64
80003684:	02410313          	addi	t1,sp,36
80003688:	d22e                	sw	a1,36(sp)
8000368a:	d432                	sw	a2,40(sp)
8000368c:	d636                	sw	a3,44(sp)
8000368e:	862a                	mv	a2,a0
80003690:	869a                	mv	a3,t1
80003692:	00000517          	auipc	a0,0x0
80003696:	e2250513          	addi	a0,a0,-478 # 800034b4 <putchar>
8000369a:	4581                	li	a1,0
8000369c:	ce06                	sw	ra,28(sp)
8000369e:	d83a                	sw	a4,48(sp)
800036a0:	da3e                	sw	a5,52(sp)
800036a2:	dc42                	sw	a6,56(sp)
800036a4:	de46                	sw	a7,60(sp)
800036a6:	c61a                	sw	t1,12(sp)
800036a8:	3479                	jal	80003136 <vprintfmt>
800036aa:	40f2                	lw	ra,28(sp)
800036ac:	4501                	li	a0,0
800036ae:	6121                	addi	sp,sp,64
800036b0:	8082                	ret

800036b2 <sprintf>:
800036b2:	715d                	addi	sp,sp,-80
800036b4:	03810313          	addi	t1,sp,56
800036b8:	d422                	sw	s0,40(sp)
800036ba:	c62a                	sw	a0,12(sp)
800036bc:	dc32                	sw	a2,56(sp)
800036be:	de36                	sw	a3,60(sp)
800036c0:	842a                	mv	s0,a0
800036c2:	862e                	mv	a2,a1
800036c4:	00000517          	auipc	a0,0x0
800036c8:	de250513          	addi	a0,a0,-542 # 800034a6 <sprintf_putch>
800036cc:	006c                	addi	a1,sp,12
800036ce:	869a                	mv	a3,t1
800036d0:	d606                	sw	ra,44(sp)
800036d2:	c2be                	sw	a5,68(sp)
800036d4:	c0ba                	sw	a4,64(sp)
800036d6:	c4c2                	sw	a6,72(sp)
800036d8:	c6c6                	sw	a7,76(sp)
800036da:	ce1a                	sw	t1,28(sp)
800036dc:	3ca9                	jal	80003136 <vprintfmt>
800036de:	47b2                	lw	a5,12(sp)
800036e0:	00078023          	sb	zero,0(a5)
800036e4:	4532                	lw	a0,12(sp)
800036e6:	50b2                	lw	ra,44(sp)
800036e8:	8d01                	sub	a0,a0,s0
800036ea:	5422                	lw	s0,40(sp)
800036ec:	6161                	addi	sp,sp,80
800036ee:	8082                	ret

800036f0 <memcpy>:
800036f0:	00c5e7b3          	or	a5,a1,a2
800036f4:	8fc9                	or	a5,a5,a0
800036f6:	8b8d                	andi	a5,a5,3
800036f8:	00c506b3          	add	a3,a0,a2
800036fc:	cf91                	beqz	a5,80003718 <memcpy+0x28>
800036fe:	962e                	add	a2,a2,a1
80003700:	87aa                	mv	a5,a0
80003702:	02d57663          	bgeu	a0,a3,8000372e <memcpy+0x3e>
80003706:	0005c703          	lbu	a4,0(a1)
8000370a:	0585                	addi	a1,a1,1
8000370c:	0785                	addi	a5,a5,1
8000370e:	fee78fa3          	sb	a4,-1(a5)
80003712:	feb61ae3          	bne	a2,a1,80003706 <memcpy+0x16>
80003716:	8082                	ret
80003718:	fed57fe3          	bgeu	a0,a3,80003716 <memcpy+0x26>
8000371c:	87aa                	mv	a5,a0
8000371e:	4198                	lw	a4,0(a1)
80003720:	0791                	addi	a5,a5,4
80003722:	0591                	addi	a1,a1,4
80003724:	fee7ae23          	sw	a4,-4(a5)
80003728:	fed7ebe3          	bltu	a5,a3,8000371e <memcpy+0x2e>
8000372c:	8082                	ret
8000372e:	8082                	ret

80003730 <memset>:
80003730:	00c567b3          	or	a5,a0,a2
80003734:	8b8d                	andi	a5,a5,3
80003736:	882a                	mv	a6,a0
80003738:	00c50733          	add	a4,a0,a2
8000373c:	cf91                	beqz	a5,80003758 <memset+0x28>
8000373e:	02e57d63          	bgeu	a0,a4,80003778 <memset+0x48>
80003742:	1101                	addi	sp,sp,-32
80003744:	0ff5f593          	zext.b	a1,a1
80003748:	ce06                	sw	ra,28(sp)
8000374a:	c62a                	sw	a0,12(sp)
8000374c:	37d5                	jal	80003730 <memset>
8000374e:	4832                	lw	a6,12(sp)
80003750:	40f2                	lw	ra,28(sp)
80003752:	8542                	mv	a0,a6
80003754:	6105                	addi	sp,sp,32
80003756:	8082                	ret
80003758:	02e57063          	bgeu	a0,a4,80003778 <memset+0x48>
8000375c:	0ff5f593          	zext.b	a1,a1
80003760:	00859693          	slli	a3,a1,0x8
80003764:	96ae                	add	a3,a3,a1
80003766:	01069793          	slli	a5,a3,0x10
8000376a:	96be                	add	a3,a3,a5
8000376c:	87aa                	mv	a5,a0
8000376e:	0791                	addi	a5,a5,4
80003770:	fed7ae23          	sw	a3,-4(a5)
80003774:	fee7ede3          	bltu	a5,a4,8000376e <memset+0x3e>
80003778:	8542                	mv	a0,a6
8000377a:	8082                	ret

8000377c <_init>:
8000377c:	7135                	addi	sp,sp,-160
8000377e:	00004797          	auipc	a5,0x4
80003782:	89278793          	addi	a5,a5,-1902 # 80007010 <_tdata_begin>
80003786:	cd22                	sw	s0,152(sp)
80003788:	00004417          	auipc	s0,0x4
8000378c:	88840413          	addi	s0,s0,-1912 # 80007010 <_tdata_begin>
80003790:	cb26                	sw	s1,148(sp)
80003792:	40f404b3          	sub	s1,s0,a5
80003796:	8626                	mv	a2,s1
80003798:	c74e                	sw	s3,140(sp)
8000379a:	c552                	sw	s4,136(sp)
8000379c:	89aa                	mv	s3,a0
8000379e:	8a2e                	mv	s4,a1
800037a0:	8512                	mv	a0,tp
800037a2:	85be                	mv	a1,a5
800037a4:	cf06                	sw	ra,156(sp)
800037a6:	c94a                	sw	s2,144(sp)
800037a8:	c356                	sw	s5,132(sp)
800037aa:	3799                	jal	800036f0 <memcpy>
800037ac:	00004617          	auipc	a2,0x4
800037b0:	8d860613          	addi	a2,a2,-1832 # 80007084 <_tbss_end>
800037b4:	8e01                	sub	a2,a2,s0
800037b6:	00920533          	add	a0,tp,s1
800037ba:	4581                	li	a1,0
800037bc:	3f95                	jal	80003730 <memset>
800037be:	85d2                	mv	a1,s4
800037c0:	854e                	mv	a0,s3
800037c2:	3d89                	jal	80003614 <thread_entry>
800037c4:	03f10913          	addi	s2,sp,63
800037c8:	4581                	li	a1,0
800037ca:	4501                	li	a0,0
800037cc:	fc097913          	andi	s2,s2,-64
800037d0:	049010ef          	jal	80005018 <main>
800037d4:	8aaa                	mv	s5,a0
800037d6:	89ca                	mv	s3,s2
800037d8:	00004417          	auipc	s0,0x4
800037dc:	83040413          	addi	s0,s0,-2000 # 80007008 <counters>
800037e0:	00004497          	auipc	s1,0x4
800037e4:	82048493          	addi	s1,s1,-2016 # 80007000 <counter_names>
800037e8:	00004a17          	auipc	s4,0x4
800037ec:	828a0a13          	addi	s4,s4,-2008 # 80007010 <_tdata_begin>
800037f0:	4014                	lw	a3,0(s0)
800037f2:	ea99                	bnez	a3,80003808 <_init+0x8c>
800037f4:	0411                	addi	s0,s0,4
800037f6:	0491                	addi	s1,s1,4
800037f8:	ff441ce3          	bne	s0,s4,800037f0 <_init+0x74>
800037fc:	01390463          	beq	s2,s3,80003804 <_init+0x88>
80003800:	854a                	mv	a0,s2
80003802:	3b6d                	jal	800035bc <printstr>
80003804:	8556                	mv	a0,s5
80003806:	3341                	jal	80003586 <tohost_exit>
80003808:	4090                	lw	a2,0(s1)
8000380a:	854e                	mv	a0,s3
8000380c:	00003597          	auipc	a1,0x3
80003810:	82c58593          	addi	a1,a1,-2004 # 80006038 <_end_text+0x38>
80003814:	3d79                	jal	800036b2 <sprintf>
80003816:	99aa                	add	s3,s3,a0
80003818:	bff1                	j	800037f4 <_init+0x78>

8000381a <strlen>:
8000381a:	00054783          	lbu	a5,0(a0)
8000381e:	cb89                	beqz	a5,80003830 <strlen+0x16>
80003820:	87aa                	mv	a5,a0
80003822:	0017c703          	lbu	a4,1(a5)
80003826:	0785                	addi	a5,a5,1
80003828:	ff6d                	bnez	a4,80003822 <strlen+0x8>
8000382a:	40a78533          	sub	a0,a5,a0
8000382e:	8082                	ret
80003830:	4501                	li	a0,0
80003832:	8082                	ret

80003834 <strnlen>:
80003834:	00b506b3          	add	a3,a0,a1
80003838:	87aa                	mv	a5,a0
8000383a:	e589                	bnez	a1,80003844 <strnlen+0x10>
8000383c:	a811                	j	80003850 <strnlen+0x1c>
8000383e:	0785                	addi	a5,a5,1
80003840:	00d78563          	beq	a5,a3,8000384a <strnlen+0x16>
80003844:	0007c703          	lbu	a4,0(a5)
80003848:	fb7d                	bnez	a4,8000383e <strnlen+0xa>
8000384a:	40a78533          	sub	a0,a5,a0
8000384e:	8082                	ret
80003850:	4501                	li	a0,0
80003852:	8082                	ret

80003854 <strcmp>:
80003854:	872a                	mv	a4,a0
80003856:	00074783          	lbu	a5,0(a4)
8000385a:	0005c683          	lbu	a3,0(a1)
8000385e:	0705                	addi	a4,a4,1
80003860:	0585                	addi	a1,a1,1
80003862:	40d78533          	sub	a0,a5,a3
80003866:	c781                	beqz	a5,8000386e <strcmp+0x1a>
80003868:	fed787e3          	beq	a5,a3,80003856 <strcmp+0x2>
8000386c:	8082                	ret
8000386e:	8082                	ret

80003870 <strcpy>:
80003870:	87aa                	mv	a5,a0
80003872:	0005c703          	lbu	a4,0(a1)
80003876:	0585                	addi	a1,a1,1
80003878:	0785                	addi	a5,a5,1
8000387a:	fee78fa3          	sb	a4,-1(a5)
8000387e:	fb75                	bnez	a4,80003872 <strcpy+0x2>
80003880:	8082                	ret

80003882 <atol>:
80003882:	00054683          	lbu	a3,0(a0)
80003886:	02000713          	li	a4,32
8000388a:	87aa                	mv	a5,a0
8000388c:	00e69763          	bne	a3,a4,8000389a <atol+0x18>
80003890:	0017c683          	lbu	a3,1(a5)
80003894:	0785                	addi	a5,a5,1
80003896:	fee68de3          	beq	a3,a4,80003890 <atol+0xe>
8000389a:	fd568713          	addi	a4,a3,-43
8000389e:	0fd77713          	andi	a4,a4,253
800038a2:	eb05                	bnez	a4,800038d2 <atol+0x50>
800038a4:	0017c703          	lbu	a4,1(a5)
800038a8:	fd368693          	addi	a3,a3,-45
800038ac:	0016b693          	seqz	a3,a3
800038b0:	c71d                	beqz	a4,800038de <atol+0x5c>
800038b2:	0785                	addi	a5,a5,1
800038b4:	4501                	li	a0,0
800038b6:	0785                	addi	a5,a5,1
800038b8:	fd070613          	addi	a2,a4,-48
800038bc:	0007c703          	lbu	a4,0(a5)
800038c0:	20a54533          	sh2add	a0,a0,a0
800038c4:	20c52533          	sh1add	a0,a0,a2
800038c8:	f77d                	bnez	a4,800038b6 <atol+0x34>
800038ca:	c299                	beqz	a3,800038d0 <atol+0x4e>
800038cc:	40a00533          	neg	a0,a0
800038d0:	8082                	ret
800038d2:	0007c703          	lbu	a4,0(a5)
800038d6:	4681                	li	a3,0
800038d8:	ff71                	bnez	a4,800038b4 <atol+0x32>
800038da:	4501                	li	a0,0
800038dc:	8082                	ret
800038de:	4501                	li	a0,0
800038e0:	b7ed                	j	800038ca <atol+0x48>

800038e2 <write_serial>:
800038e2:	100007b7          	lui	a5,0x10000
800038e6:	00a78023          	sb	a0,0(a5) # 10000000 <buflen.0+0xfffffc0>
800038ea:	8082                	ret

800038ec <__udivdi3>:
800038ec:	8832                	mv	a6,a2
800038ee:	87aa                	mv	a5,a0
800038f0:	88ae                	mv	a7,a1
800038f2:	e6d5                	bnez	a3,8000399e <__udivdi3+0xb2>
800038f4:	1cc5f363          	bgeu	a1,a2,80003aba <__udivdi3+0x1ce>
800038f8:	6741                	lui	a4,0x10
800038fa:	2ce66463          	bltu	a2,a4,80003bc2 <__udivdi3+0x2d6>
800038fe:	01000737          	lui	a4,0x1000
80003902:	4361                	li	t1,24
80003904:	00e67363          	bgeu	a2,a4,8000390a <__udivdi3+0x1e>
80003908:	4341                	li	t1,16
8000390a:	80006737          	lui	a4,0x80006
8000390e:	006656b3          	srl	a3,a2,t1
80003912:	20470713          	addi	a4,a4,516 # 80006204 <__clz_tab>
80003916:	9736                	add	a4,a4,a3
80003918:	00074703          	lbu	a4,0(a4)
8000391c:	02000693          	li	a3,32
80003920:	971a                	add	a4,a4,t1
80003922:	00d70d63          	beq	a4,a3,8000393c <__udivdi3+0x50>
80003926:	8e99                	sub	a3,a3,a4
80003928:	00d598b3          	sll	a7,a1,a3
8000392c:	00e55733          	srl	a4,a0,a4
80003930:	00d61833          	sll	a6,a2,a3
80003934:	00d517b3          	sll	a5,a0,a3
80003938:	011768b3          	or	a7,a4,a7
8000393c:	01085613          	srli	a2,a6,0x10
80003940:	02c8d533          	divu	a0,a7,a2
80003944:	01081693          	slli	a3,a6,0x10
80003948:	82c1                	srli	a3,a3,0x10
8000394a:	0107d713          	srli	a4,a5,0x10
8000394e:	02c8f8b3          	remu	a7,a7,a2
80003952:	02a685b3          	mul	a1,a3,a0
80003956:	08c2                	slli	a7,a7,0x10
80003958:	01176733          	or	a4,a4,a7
8000395c:	00b77a63          	bgeu	a4,a1,80003970 <__udivdi3+0x84>
80003960:	00e808b3          	add	a7,a6,a4
80003964:	8746                	mv	a4,a7
80003966:	00b8f463          	bgeu	a7,a1,8000396e <__udivdi3+0x82>
8000396a:	2d08f163          	bgeu	a7,a6,80003c2c <__udivdi3+0x340>
8000396e:	157d                	addi	a0,a0,-1
80003970:	8f0d                	sub	a4,a4,a1
80003972:	02c755b3          	divu	a1,a4,a2
80003976:	07c2                	slli	a5,a5,0x10
80003978:	83c1                	srli	a5,a5,0x10
8000397a:	02c77733          	remu	a4,a4,a2
8000397e:	02b686b3          	mul	a3,a3,a1
80003982:	0742                	slli	a4,a4,0x10
80003984:	8fd9                	or	a5,a5,a4
80003986:	00d7f863          	bgeu	a5,a3,80003996 <__udivdi3+0xaa>
8000398a:	97c2                	add	a5,a5,a6
8000398c:	00d7f463          	bgeu	a5,a3,80003994 <__udivdi3+0xa8>
80003990:	2907fc63          	bgeu	a5,a6,80003c28 <__udivdi3+0x33c>
80003994:	15fd                	addi	a1,a1,-1
80003996:	0542                	slli	a0,a0,0x10
80003998:	8d4d                	or	a0,a0,a1
8000399a:	4581                	li	a1,0
8000399c:	8082                	ret
8000399e:	00d5f563          	bgeu	a1,a3,800039a8 <__udivdi3+0xbc>
800039a2:	4581                	li	a1,0
800039a4:	4501                	li	a0,0
800039a6:	8082                	ret
800039a8:	67c1                	lui	a5,0x10
800039aa:	22f6e563          	bltu	a3,a5,80003bd4 <__udivdi3+0x2e8>
800039ae:	010007b7          	lui	a5,0x1000
800039b2:	48e1                	li	a7,24
800039b4:	00f6f363          	bgeu	a3,a5,800039ba <__udivdi3+0xce>
800039b8:	48c1                	li	a7,16
800039ba:	800067b7          	lui	a5,0x80006
800039be:	0116d733          	srl	a4,a3,a7
800039c2:	20478793          	addi	a5,a5,516 # 80006204 <__clz_tab>
800039c6:	97ba                	add	a5,a5,a4
800039c8:	0007c703          	lbu	a4,0(a5)
800039cc:	02000813          	li	a6,32
800039d0:	9746                	add	a4,a4,a7
800039d2:	21070763          	beq	a4,a6,80003be0 <__udivdi3+0x2f4>
800039d6:	40e80833          	sub	a6,a6,a4
800039da:	00e658b3          	srl	a7,a2,a4
800039de:	010696b3          	sll	a3,a3,a6
800039e2:	00d8e8b3          	or	a7,a7,a3
800039e6:	00e5d333          	srl	t1,a1,a4
800039ea:	0108de93          	srli	t4,a7,0x10
800039ee:	03d357b3          	divu	a5,t1,t4
800039f2:	01089e13          	slli	t3,a7,0x10
800039f6:	010595b3          	sll	a1,a1,a6
800039fa:	010e5e13          	srli	t3,t3,0x10
800039fe:	00e55733          	srl	a4,a0,a4
80003a02:	8f4d                	or	a4,a4,a1
80003a04:	01075693          	srli	a3,a4,0x10
80003a08:	01061633          	sll	a2,a2,a6
80003a0c:	03d37333          	remu	t1,t1,t4
80003a10:	02fe05b3          	mul	a1,t3,a5
80003a14:	0342                	slli	t1,t1,0x10
80003a16:	0066e6b3          	or	a3,a3,t1
80003a1a:	00b6fa63          	bgeu	a3,a1,80003a2e <__udivdi3+0x142>
80003a1e:	00d88333          	add	t1,a7,a3
80003a22:	869a                	mv	a3,t1
80003a24:	00b37463          	bgeu	t1,a1,80003a2c <__udivdi3+0x140>
80003a28:	23137563          	bgeu	t1,a7,80003c52 <__udivdi3+0x366>
80003a2c:	17fd                	addi	a5,a5,-1
80003a2e:	8e8d                	sub	a3,a3,a1
80003a30:	03d6d333          	divu	t1,a3,t4
80003a34:	0742                	slli	a4,a4,0x10
80003a36:	8341                	srli	a4,a4,0x10
80003a38:	03d6f6b3          	remu	a3,a3,t4
80003a3c:	026e05b3          	mul	a1,t3,t1
80003a40:	06c2                	slli	a3,a3,0x10
80003a42:	8f55                	or	a4,a4,a3
80003a44:	00b77a63          	bgeu	a4,a1,80003a58 <__udivdi3+0x16c>
80003a48:	00e886b3          	add	a3,a7,a4
80003a4c:	8736                	mv	a4,a3
80003a4e:	00b6f463          	bgeu	a3,a1,80003a56 <__udivdi3+0x16a>
80003a52:	1f16f863          	bgeu	a3,a7,80003c42 <__udivdi3+0x356>
80003a56:	137d                	addi	t1,t1,-1
80003a58:	07c2                	slli	a5,a5,0x10
80003a5a:	0067e6b3          	or	a3,a5,t1
80003a5e:	8f0d                	sub	a4,a4,a1
80003a60:	01061793          	slli	a5,a2,0x10
80003a64:	01031593          	slli	a1,t1,0x10
80003a68:	83c1                	srli	a5,a5,0x10
80003a6a:	81c1                	srli	a1,a1,0x10
80003a6c:	0106d313          	srli	t1,a3,0x10
80003a70:	8241                	srli	a2,a2,0x10
80003a72:	02f30e33          	mul	t3,t1,a5
80003a76:	02f588b3          	mul	a7,a1,a5
80003a7a:	02c585b3          	mul	a1,a1,a2
80003a7e:	0108d793          	srli	a5,a7,0x10
80003a82:	95f2                	add	a1,a1,t3
80003a84:	97ae                	add	a5,a5,a1
80003a86:	02c30333          	mul	t1,t1,a2
80003a8a:	01c7f463          	bgeu	a5,t3,80003a92 <__udivdi3+0x1a6>
80003a8e:	6641                	lui	a2,0x10
80003a90:	9332                	add	t1,t1,a2
80003a92:	0107d613          	srli	a2,a5,0x10
80003a96:	961a                	add	a2,a2,t1
80003a98:	00c76d63          	bltu	a4,a2,80003ab2 <__udivdi3+0x1c6>
80003a9c:	08c2                	slli	a7,a7,0x10
80003a9e:	0108d893          	srli	a7,a7,0x10
80003aa2:	07c2                	slli	a5,a5,0x10
80003aa4:	01051533          	sll	a0,a0,a6
80003aa8:	97c6                	add	a5,a5,a7
80003aaa:	18f57563          	bgeu	a0,a5,80003c34 <__udivdi3+0x348>
80003aae:	18c71363          	bne	a4,a2,80003c34 <__udivdi3+0x348>
80003ab2:	fff68513          	addi	a0,a3,-1
80003ab6:	4581                	li	a1,0
80003ab8:	8082                	ret
80003aba:	10060a63          	beqz	a2,80003bce <__udivdi3+0x2e2>
80003abe:	6741                	lui	a4,0x10
80003ac0:	14e67263          	bgeu	a2,a4,80003c04 <__udivdi3+0x318>
80003ac4:	10063893          	sltiu	a7,a2,256
80003ac8:	0018b893          	seqz	a7,a7
80003acc:	088e                	slli	a7,a7,0x3
80003ace:	011656b3          	srl	a3,a2,a7
80003ad2:	80006737          	lui	a4,0x80006
80003ad6:	20470713          	addi	a4,a4,516 # 80006204 <__clz_tab>
80003ada:	9736                	add	a4,a4,a3
80003adc:	00074703          	lbu	a4,0(a4)
80003ae0:	02000693          	li	a3,32
80003ae4:	9746                	add	a4,a4,a7
80003ae6:	10d70763          	beq	a4,a3,80003bf4 <__udivdi3+0x308>
80003aea:	40e687b3          	sub	a5,a3,a4
80003aee:	00f61833          	sll	a6,a2,a5
80003af2:	00e5d333          	srl	t1,a1,a4
80003af6:	01085893          	srli	a7,a6,0x10
80003afa:	03135e33          	divu	t3,t1,a7
80003afe:	01081613          	slli	a2,a6,0x10
80003b02:	00f595b3          	sll	a1,a1,a5
80003b06:	8241                	srli	a2,a2,0x10
80003b08:	00e55733          	srl	a4,a0,a4
80003b0c:	8f4d                	or	a4,a4,a1
80003b0e:	01075693          	srli	a3,a4,0x10
80003b12:	00f517b3          	sll	a5,a0,a5
80003b16:	03137333          	remu	t1,t1,a7
80003b1a:	03c605b3          	mul	a1,a2,t3
80003b1e:	0342                	slli	t1,t1,0x10
80003b20:	0066e6b3          	or	a3,a3,t1
80003b24:	00b6fa63          	bgeu	a3,a1,80003b38 <__udivdi3+0x24c>
80003b28:	00d80533          	add	a0,a6,a3
80003b2c:	86aa                	mv	a3,a0
80003b2e:	00b57463          	bgeu	a0,a1,80003b36 <__udivdi3+0x24a>
80003b32:	11057463          	bgeu	a0,a6,80003c3a <__udivdi3+0x34e>
80003b36:	1e7d                	addi	t3,t3,-1
80003b38:	8e8d                	sub	a3,a3,a1
80003b3a:	0316d533          	divu	a0,a3,a7
80003b3e:	0742                	slli	a4,a4,0x10
80003b40:	8341                	srli	a4,a4,0x10
80003b42:	0316f6b3          	remu	a3,a3,a7
80003b46:	02a60333          	mul	t1,a2,a0
80003b4a:	06c2                	slli	a3,a3,0x10
80003b4c:	8f55                	or	a4,a4,a3
80003b4e:	00677a63          	bgeu	a4,t1,80003b62 <__udivdi3+0x276>
80003b52:	00e806b3          	add	a3,a6,a4
80003b56:	8736                	mv	a4,a3
80003b58:	0066f463          	bgeu	a3,t1,80003b60 <__udivdi3+0x274>
80003b5c:	0f06f763          	bgeu	a3,a6,80003c4a <__udivdi3+0x35e>
80003b60:	157d                	addi	a0,a0,-1
80003b62:	010e1593          	slli	a1,t3,0x10
80003b66:	8dc9                	or	a1,a1,a0
80003b68:	40670733          	sub	a4,a4,t1
80003b6c:	03175533          	divu	a0,a4,a7
80003b70:	0107d693          	srli	a3,a5,0x10
80003b74:	03177733          	remu	a4,a4,a7
80003b78:	02c50333          	mul	t1,a0,a2
80003b7c:	0742                	slli	a4,a4,0x10
80003b7e:	8f55                	or	a4,a4,a3
80003b80:	00677a63          	bgeu	a4,t1,80003b94 <__udivdi3+0x2a8>
80003b84:	00e806b3          	add	a3,a6,a4
80003b88:	8736                	mv	a4,a3
80003b8a:	0066f463          	bgeu	a3,t1,80003b92 <__udivdi3+0x2a6>
80003b8e:	0906f963          	bgeu	a3,a6,80003c20 <__udivdi3+0x334>
80003b92:	157d                	addi	a0,a0,-1
80003b94:	40670733          	sub	a4,a4,t1
80003b98:	031756b3          	divu	a3,a4,a7
80003b9c:	07c2                	slli	a5,a5,0x10
80003b9e:	83c1                	srli	a5,a5,0x10
80003ba0:	03177733          	remu	a4,a4,a7
80003ba4:	02c68633          	mul	a2,a3,a2
80003ba8:	0742                	slli	a4,a4,0x10
80003baa:	8fd9                	or	a5,a5,a4
80003bac:	00c7f863          	bgeu	a5,a2,80003bbc <__udivdi3+0x2d0>
80003bb0:	97c2                	add	a5,a5,a6
80003bb2:	00c7f463          	bgeu	a5,a2,80003bba <__udivdi3+0x2ce>
80003bb6:	0707f363          	bgeu	a5,a6,80003c1c <__udivdi3+0x330>
80003bba:	16fd                	addi	a3,a3,-1
80003bbc:	0542                	slli	a0,a0,0x10
80003bbe:	8d55                	or	a0,a0,a3
80003bc0:	8082                	ret
80003bc2:	10063313          	sltiu	t1,a2,256
80003bc6:	00133313          	seqz	t1,t1
80003bca:	030e                	slli	t1,t1,0x3
80003bcc:	bb3d                	j	8000390a <__udivdi3+0x1e>
80003bce:	4681                	li	a3,0
80003bd0:	4881                	li	a7,0
80003bd2:	b701                	j	80003ad2 <__udivdi3+0x1e6>
80003bd4:	1006b893          	sltiu	a7,a3,256
80003bd8:	0018b893          	seqz	a7,a7
80003bdc:	088e                	slli	a7,a7,0x3
80003bde:	bbf1                	j	800039ba <__udivdi3+0xce>
80003be0:	00c53633          	sltu	a2,a0,a2
80003be4:	00b6b6b3          	sltu	a3,a3,a1
80003be8:	00163613          	seqz	a2,a2
80003bec:	00c6e533          	or	a0,a3,a2
80003bf0:	4581                	li	a1,0
80003bf2:	8082                	ret
80003bf4:	40c58733          	sub	a4,a1,a2
80003bf8:	01065893          	srli	a7,a2,0x10
80003bfc:	0642                	slli	a2,a2,0x10
80003bfe:	8241                	srli	a2,a2,0x10
80003c00:	4585                	li	a1,1
80003c02:	b7ad                	j	80003b6c <__udivdi3+0x280>
80003c04:	01000737          	lui	a4,0x1000
80003c08:	00e67663          	bgeu	a2,a4,80003c14 <__udivdi3+0x328>
80003c0c:	01065693          	srli	a3,a2,0x10
80003c10:	48c1                	li	a7,16
80003c12:	b5c1                	j	80003ad2 <__udivdi3+0x1e6>
80003c14:	01865693          	srli	a3,a2,0x18
80003c18:	48e1                	li	a7,24
80003c1a:	bd65                	j	80003ad2 <__udivdi3+0x1e6>
80003c1c:	16f9                	addi	a3,a3,-2
80003c1e:	bf79                	j	80003bbc <__udivdi3+0x2d0>
80003c20:	1579                	addi	a0,a0,-2
80003c22:	01068733          	add	a4,a3,a6
80003c26:	b7bd                	j	80003b94 <__udivdi3+0x2a8>
80003c28:	15f9                	addi	a1,a1,-2
80003c2a:	b3b5                	j	80003996 <__udivdi3+0xaa>
80003c2c:	1579                	addi	a0,a0,-2
80003c2e:	01088733          	add	a4,a7,a6
80003c32:	bb3d                	j	80003970 <__udivdi3+0x84>
80003c34:	8536                	mv	a0,a3
80003c36:	4581                	li	a1,0
80003c38:	8082                	ret
80003c3a:	1e79                	addi	t3,t3,-2
80003c3c:	010506b3          	add	a3,a0,a6
80003c40:	bde5                	j	80003b38 <__udivdi3+0x24c>
80003c42:	1379                	addi	t1,t1,-2
80003c44:	01168733          	add	a4,a3,a7
80003c48:	bd01                	j	80003a58 <__udivdi3+0x16c>
80003c4a:	1579                	addi	a0,a0,-2
80003c4c:	01068733          	add	a4,a3,a6
80003c50:	bf09                	j	80003b62 <__udivdi3+0x276>
80003c52:	17f9                	addi	a5,a5,-2
80003c54:	011306b3          	add	a3,t1,a7
80003c58:	bbd9                	j	80003a2e <__udivdi3+0x142>

80003c5a <__umoddi3>:
80003c5a:	8832                	mv	a6,a2
80003c5c:	88aa                	mv	a7,a0
80003c5e:	832e                	mv	t1,a1
80003c60:	872e                	mv	a4,a1
80003c62:	e6e1                	bnez	a3,80003d2a <__umoddi3+0xd0>
80003c64:	20c5f463          	bgeu	a1,a2,80003e6c <__umoddi3+0x212>
80003c68:	67c1                	lui	a5,0x10
80003c6a:	32f66b63          	bltu	a2,a5,80003fa0 <__umoddi3+0x346>
80003c6e:	010007b7          	lui	a5,0x1000
80003c72:	46e1                	li	a3,24
80003c74:	00f67363          	bgeu	a2,a5,80003c7a <__umoddi3+0x20>
80003c78:	46c1                	li	a3,16
80003c7a:	800067b7          	lui	a5,0x80006
80003c7e:	00d65333          	srl	t1,a2,a3
80003c82:	20478793          	addi	a5,a5,516 # 80006204 <__clz_tab>
80003c86:	979a                	add	a5,a5,t1
80003c88:	0007c783          	lbu	a5,0(a5)
80003c8c:	02000313          	li	t1,32
80003c90:	97b6                	add	a5,a5,a3
80003c92:	40f306b3          	sub	a3,t1,a5
80003c96:	00678b63          	beq	a5,t1,80003cac <__umoddi3+0x52>
80003c9a:	00d59733          	sll	a4,a1,a3
80003c9e:	00f557b3          	srl	a5,a0,a5
80003ca2:	8f5d                	or	a4,a4,a5
80003ca4:	00d61833          	sll	a6,a2,a3
80003ca8:	00d518b3          	sll	a7,a0,a3
80003cac:	01085593          	srli	a1,a6,0x10
80003cb0:	02b75633          	divu	a2,a4,a1
80003cb4:	01081313          	slli	t1,a6,0x10
80003cb8:	01035313          	srli	t1,t1,0x10
80003cbc:	0108d793          	srli	a5,a7,0x10
80003cc0:	02b77733          	remu	a4,a4,a1
80003cc4:	02660633          	mul	a2,a2,t1
80003cc8:	0742                	slli	a4,a4,0x10
80003cca:	8fd9                	or	a5,a5,a4
80003ccc:	00c7ff63          	bgeu	a5,a2,80003cea <__umoddi3+0x90>
80003cd0:	97c2                	add	a5,a5,a6
80003cd2:	0107b533          	sltu	a0,a5,a6
80003cd6:	00c7b733          	sltu	a4,a5,a2
80003cda:	00153513          	seqz	a0,a0
80003cde:	8f69                	and	a4,a4,a0
80003ce0:	40e00733          	neg	a4,a4
80003ce4:	01077733          	and	a4,a4,a6
80003ce8:	97ba                	add	a5,a5,a4
80003cea:	8f91                	sub	a5,a5,a2
80003cec:	02b7d733          	divu	a4,a5,a1
80003cf0:	01089513          	slli	a0,a7,0x10
80003cf4:	8141                	srli	a0,a0,0x10
80003cf6:	02b7f7b3          	remu	a5,a5,a1
80003cfa:	02670733          	mul	a4,a4,t1
80003cfe:	07c2                	slli	a5,a5,0x10
80003d00:	8d5d                	or	a0,a0,a5
80003d02:	00e57f63          	bgeu	a0,a4,80003d20 <__umoddi3+0xc6>
80003d06:	9542                	add	a0,a0,a6
80003d08:	01053633          	sltu	a2,a0,a6
80003d0c:	00e537b3          	sltu	a5,a0,a4
80003d10:	00163613          	seqz	a2,a2
80003d14:	8ff1                	and	a5,a5,a2
80003d16:	40f007b3          	neg	a5,a5
80003d1a:	0107f7b3          	and	a5,a5,a6
80003d1e:	953e                	add	a0,a0,a5
80003d20:	8d19                	sub	a0,a0,a4
80003d22:	00d55533          	srl	a0,a0,a3
80003d26:	4581                	li	a1,0
80003d28:	8082                	ret
80003d2a:	8e2a                	mv	t3,a0
80003d2c:	00d5f363          	bgeu	a1,a3,80003d32 <__umoddi3+0xd8>
80003d30:	8082                	ret
80003d32:	67c1                	lui	a5,0x10
80003d34:	26f6ef63          	bltu	a3,a5,80003fb2 <__umoddi3+0x358>
80003d38:	010007b7          	lui	a5,0x1000
80003d3c:	4761                	li	a4,24
80003d3e:	00f6f363          	bgeu	a3,a5,80003d44 <__umoddi3+0xea>
80003d42:	4741                	li	a4,16
80003d44:	800067b7          	lui	a5,0x80006
80003d48:	00e6d833          	srl	a6,a3,a4
80003d4c:	20478793          	addi	a5,a5,516 # 80006204 <__clz_tab>
80003d50:	97c2                	add	a5,a5,a6
80003d52:	0007c883          	lbu	a7,0(a5)
80003d56:	02000813          	li	a6,32
80003d5a:	98ba                	add	a7,a7,a4
80003d5c:	27088163          	beq	a7,a6,80003fbe <__umoddi3+0x364>
80003d60:	41180833          	sub	a6,a6,a7
80003d64:	010696b3          	sll	a3,a3,a6
80003d68:	01165333          	srl	t1,a2,a7
80003d6c:	00d36333          	or	t1,t1,a3
80003d70:	0115deb3          	srl	t4,a1,a7
80003d74:	01035f93          	srli	t6,t1,0x10
80003d78:	03fed7b3          	divu	a5,t4,t6
80003d7c:	01031f13          	slli	t5,t1,0x10
80003d80:	010595b3          	sll	a1,a1,a6
80003d84:	010f5f13          	srli	t5,t5,0x10
80003d88:	011556b3          	srl	a3,a0,a7
80003d8c:	8ecd                	or	a3,a3,a1
80003d8e:	0106d713          	srli	a4,a3,0x10
80003d92:	01061633          	sll	a2,a2,a6
80003d96:	01051e33          	sll	t3,a0,a6
80003d9a:	03fefeb3          	remu	t4,t4,t6
80003d9e:	02ff05b3          	mul	a1,t5,a5
80003da2:	0ec2                	slli	t4,t4,0x10
80003da4:	01d76733          	or	a4,a4,t4
80003da8:	00b77a63          	bgeu	a4,a1,80003dbc <__umoddi3+0x162>
80003dac:	00e30533          	add	a0,t1,a4
80003db0:	872a                	mv	a4,a0
80003db2:	00b57463          	bgeu	a0,a1,80003dba <__umoddi3+0x160>
80003db6:	24657b63          	bgeu	a0,t1,8000400c <__umoddi3+0x3b2>
80003dba:	17fd                	addi	a5,a5,-1
80003dbc:	8f0d                	sub	a4,a4,a1
80003dbe:	03f75533          	divu	a0,a4,t6
80003dc2:	06c2                	slli	a3,a3,0x10
80003dc4:	82c1                	srli	a3,a3,0x10
80003dc6:	03f77733          	remu	a4,a4,t6
80003dca:	02af05b3          	mul	a1,t5,a0
80003dce:	0742                	slli	a4,a4,0x10
80003dd0:	8f55                	or	a4,a4,a3
80003dd2:	00b77a63          	bgeu	a4,a1,80003de6 <__umoddi3+0x18c>
80003dd6:	00e306b3          	add	a3,t1,a4
80003dda:	8736                	mv	a4,a3
80003ddc:	00b6f463          	bgeu	a3,a1,80003de4 <__umoddi3+0x18a>
80003de0:	2266f263          	bgeu	a3,t1,80004004 <__umoddi3+0x3aa>
80003de4:	157d                	addi	a0,a0,-1
80003de6:	07c2                	slli	a5,a5,0x10
80003de8:	8fc9                	or	a5,a5,a0
80003dea:	8f0d                	sub	a4,a4,a1
80003dec:	01061693          	slli	a3,a2,0x10
80003df0:	01051593          	slli	a1,a0,0x10
80003df4:	81c1                	srli	a1,a1,0x10
80003df6:	82c1                	srli	a3,a3,0x10
80003df8:	83c1                	srli	a5,a5,0x10
80003dfa:	01065e93          	srli	t4,a2,0x10
80003dfe:	02d78f33          	mul	t5,a5,a3
80003e02:	02d586b3          	mul	a3,a1,a3
80003e06:	03d585b3          	mul	a1,a1,t4
80003e0a:	0106d513          	srli	a0,a3,0x10
80003e0e:	95fa                	add	a1,a1,t5
80003e10:	952e                	add	a0,a0,a1
80003e12:	03d787b3          	mul	a5,a5,t4
80003e16:	01e57463          	bgeu	a0,t5,80003e1e <__umoddi3+0x1c4>
80003e1a:	65c1                	lui	a1,0x10
80003e1c:	97ae                	add	a5,a5,a1
80003e1e:	01055593          	srli	a1,a0,0x10
80003e22:	06c2                	slli	a3,a3,0x10
80003e24:	82c1                	srli	a3,a3,0x10
80003e26:	0542                	slli	a0,a0,0x10
80003e28:	97ae                	add	a5,a5,a1
80003e2a:	9536                	add	a0,a0,a3
80003e2c:	00f76863          	bltu	a4,a5,80003e3c <__umoddi3+0x1e2>
80003e30:	40f705b3          	sub	a1,a4,a5
80003e34:	00f71d63          	bne	a4,a5,80003e4e <__umoddi3+0x1f4>
80003e38:	00ae7b63          	bgeu	t3,a0,80003e4e <__umoddi3+0x1f4>
80003e3c:	40c50633          	sub	a2,a0,a2
80003e40:	00c53533          	sltu	a0,a0,a2
80003e44:	951a                	add	a0,a0,t1
80003e46:	8f89                	sub	a5,a5,a0
80003e48:	40f705b3          	sub	a1,a4,a5
80003e4c:	8532                	mv	a0,a2
80003e4e:	40ae0533          	sub	a0,t3,a0
80003e52:	00ae3e33          	sltu	t3,t3,a0
80003e56:	41c585b3          	sub	a1,a1,t3
80003e5a:	011598b3          	sll	a7,a1,a7
80003e5e:	01055533          	srl	a0,a0,a6
80003e62:	0105d5b3          	srl	a1,a1,a6
80003e66:	00a8e533          	or	a0,a7,a0
80003e6a:	8082                	ret
80003e6c:	14060063          	beqz	a2,80003fac <__umoddi3+0x352>
80003e70:	67c1                	lui	a5,0x10
80003e72:	16f67463          	bgeu	a2,a5,80003fda <__umoddi3+0x380>
80003e76:	10063713          	sltiu	a4,a2,256
80003e7a:	00173713          	seqz	a4,a4
80003e7e:	070e                	slli	a4,a4,0x3
80003e80:	00e656b3          	srl	a3,a2,a4
80003e84:	800067b7          	lui	a5,0x80006
80003e88:	20478793          	addi	a5,a5,516 # 80006204 <__clz_tab>
80003e8c:	97b6                	add	a5,a5,a3
80003e8e:	0007c783          	lbu	a5,0(a5)
80003e92:	02000313          	li	t1,32
80003e96:	97ba                	add	a5,a5,a4
80003e98:	40f306b3          	sub	a3,t1,a5
80003e9c:	12678863          	beq	a5,t1,80003fcc <__umoddi3+0x372>
80003ea0:	00d61833          	sll	a6,a2,a3
80003ea4:	00f5de33          	srl	t3,a1,a5
80003ea8:	01085313          	srli	t1,a6,0x10
80003eac:	026e5eb3          	divu	t4,t3,t1
80003eb0:	01081613          	slli	a2,a6,0x10
80003eb4:	00d595b3          	sll	a1,a1,a3
80003eb8:	00f55733          	srl	a4,a0,a5
80003ebc:	8241                	srli	a2,a2,0x10
80003ebe:	8f4d                	or	a4,a4,a1
80003ec0:	01075793          	srli	a5,a4,0x10
80003ec4:	00d518b3          	sll	a7,a0,a3
80003ec8:	026e7e33          	remu	t3,t3,t1
80003ecc:	02ce85b3          	mul	a1,t4,a2
80003ed0:	0e42                	slli	t3,t3,0x10
80003ed2:	01c7e7b3          	or	a5,a5,t3
80003ed6:	02b7f063          	bgeu	a5,a1,80003ef6 <__umoddi3+0x29c>
80003eda:	97c2                	add	a5,a5,a6
80003edc:	0107be33          	sltu	t3,a5,a6
80003ee0:	00b7b533          	sltu	a0,a5,a1
80003ee4:	001e3e13          	seqz	t3,t3
80003ee8:	01c57533          	and	a0,a0,t3
80003eec:	40a00533          	neg	a0,a0
80003ef0:	01057533          	and	a0,a0,a6
80003ef4:	97aa                	add	a5,a5,a0
80003ef6:	8f8d                	sub	a5,a5,a1
80003ef8:	0267d5b3          	divu	a1,a5,t1
80003efc:	0742                	slli	a4,a4,0x10
80003efe:	8341                	srli	a4,a4,0x10
80003f00:	0267f7b3          	remu	a5,a5,t1
80003f04:	02c585b3          	mul	a1,a1,a2
80003f08:	07c2                	slli	a5,a5,0x10
80003f0a:	8f5d                	or	a4,a4,a5
80003f0c:	00b77f63          	bgeu	a4,a1,80003f2a <__umoddi3+0x2d0>
80003f10:	9742                	add	a4,a4,a6
80003f12:	01073533          	sltu	a0,a4,a6
80003f16:	00b737b3          	sltu	a5,a4,a1
80003f1a:	00153513          	seqz	a0,a0
80003f1e:	8fe9                	and	a5,a5,a0
80003f20:	40f007b3          	neg	a5,a5
80003f24:	0107f7b3          	and	a5,a5,a6
80003f28:	973e                	add	a4,a4,a5
80003f2a:	8f0d                	sub	a4,a4,a1
80003f2c:	026755b3          	divu	a1,a4,t1
80003f30:	0108d793          	srli	a5,a7,0x10
80003f34:	02677733          	remu	a4,a4,t1
80003f38:	02c585b3          	mul	a1,a1,a2
80003f3c:	0742                	slli	a4,a4,0x10
80003f3e:	8fd9                	or	a5,a5,a4
80003f40:	00b7ff63          	bgeu	a5,a1,80003f5e <__umoddi3+0x304>
80003f44:	97c2                	add	a5,a5,a6
80003f46:	0107b533          	sltu	a0,a5,a6
80003f4a:	00b7b733          	sltu	a4,a5,a1
80003f4e:	00153513          	seqz	a0,a0
80003f52:	8f69                	and	a4,a4,a0
80003f54:	40e00733          	neg	a4,a4
80003f58:	01077733          	and	a4,a4,a6
80003f5c:	97ba                	add	a5,a5,a4
80003f5e:	8f8d                	sub	a5,a5,a1
80003f60:	0267d733          	divu	a4,a5,t1
80003f64:	08c2                	slli	a7,a7,0x10
80003f66:	0108d893          	srli	a7,a7,0x10
80003f6a:	0267f533          	remu	a0,a5,t1
80003f6e:	02c707b3          	mul	a5,a4,a2
80003f72:	0542                	slli	a0,a0,0x10
80003f74:	00a8e533          	or	a0,a7,a0
80003f78:	00f57f63          	bgeu	a0,a5,80003f96 <__umoddi3+0x33c>
80003f7c:	9542                	add	a0,a0,a6
80003f7e:	01053633          	sltu	a2,a0,a6
80003f82:	00f53733          	sltu	a4,a0,a5
80003f86:	00163613          	seqz	a2,a2
80003f8a:	8f71                	and	a4,a4,a2
80003f8c:	40e00733          	neg	a4,a4
80003f90:	01077733          	and	a4,a4,a6
80003f94:	953a                	add	a0,a0,a4
80003f96:	8d1d                	sub	a0,a0,a5
80003f98:	00d55533          	srl	a0,a0,a3
80003f9c:	4581                	li	a1,0
80003f9e:	8082                	ret
80003fa0:	10063693          	sltiu	a3,a2,256
80003fa4:	0016b693          	seqz	a3,a3
80003fa8:	068e                	slli	a3,a3,0x3
80003faa:	b9c1                	j	80003c7a <__umoddi3+0x20>
80003fac:	4681                	li	a3,0
80003fae:	4701                	li	a4,0
80003fb0:	bdd1                	j	80003e84 <__umoddi3+0x22a>
80003fb2:	1006b713          	sltiu	a4,a3,256
80003fb6:	00173713          	seqz	a4,a4
80003fba:	070e                	slli	a4,a4,0x3
80003fbc:	b361                	j	80003d44 <__umoddi3+0xea>
80003fbe:	02b6ea63          	bltu	a3,a1,80003ff2 <__umoddi3+0x398>
80003fc2:	02c57863          	bgeu	a0,a2,80003ff2 <__umoddi3+0x398>
80003fc6:	8572                	mv	a0,t3
80003fc8:	859a                	mv	a1,t1
80003fca:	8082                	ret
80003fcc:	40c58733          	sub	a4,a1,a2
80003fd0:	01065313          	srli	t1,a2,0x10
80003fd4:	0642                	slli	a2,a2,0x10
80003fd6:	8241                	srli	a2,a2,0x10
80003fd8:	bf91                	j	80003f2c <__umoddi3+0x2d2>
80003fda:	010007b7          	lui	a5,0x1000
80003fde:	00f67663          	bgeu	a2,a5,80003fea <__umoddi3+0x390>
80003fe2:	01065693          	srli	a3,a2,0x10
80003fe6:	4741                	li	a4,16
80003fe8:	bd71                	j	80003e84 <__umoddi3+0x22a>
80003fea:	01865693          	srli	a3,a2,0x18
80003fee:	4761                	li	a4,24
80003ff0:	bd51                	j	80003e84 <__umoddi3+0x22a>
80003ff2:	40c50e33          	sub	t3,a0,a2
80003ff6:	01c53333          	sltu	t1,a0,t3
80003ffa:	40d586b3          	sub	a3,a1,a3
80003ffe:	40668333          	sub	t1,a3,t1
80004002:	b7d1                	j	80003fc6 <__umoddi3+0x36c>
80004004:	1579                	addi	a0,a0,-2
80004006:	00668733          	add	a4,a3,t1
8000400a:	bbf1                	j	80003de6 <__umoddi3+0x18c>
8000400c:	17f9                	addi	a5,a5,-2 # fffffe <buflen.0+0xffffbe>
8000400e:	00650733          	add	a4,a0,t1
80004012:	b36d                	j	80003dbc <__umoddi3+0x162>

80004014 <__eqdf2>:
80004014:	0145d713          	srli	a4,a1,0x14
80004018:	001007b7          	lui	a5,0x100
8000401c:	0146d813          	srli	a6,a3,0x14
80004020:	17fd                	addi	a5,a5,-1 # fffff <buflen.0+0xfffbf>
80004022:	7ff00893          	li	a7,2047
80004026:	7ff77713          	andi	a4,a4,2047
8000402a:	00b7fe33          	and	t3,a5,a1
8000402e:	01187833          	and	a6,a6,a7
80004032:	8ff5                	and	a5,a5,a3
80004034:	81fd                	srli	a1,a1,0x1f
80004036:	82fd                	srli	a3,a3,0x1f
80004038:	4305                	li	t1,1
8000403a:	03170563          	beq	a4,a7,80004064 <__eqdf2+0x50>
8000403e:	03180163          	beq	a6,a7,80004060 <__eqdf2+0x4c>
80004042:	01071f63          	bne	a4,a6,80004060 <__eqdf2+0x4c>
80004046:	03c79d63          	bne	a5,t3,80004080 <__eqdf2+0x6c>
8000404a:	02a61b63          	bne	a2,a0,80004080 <__eqdf2+0x6c>
8000404e:	4301                	li	t1,0
80004050:	00d58863          	beq	a1,a3,80004060 <__eqdf2+0x4c>
80004054:	4305                	li	t1,1
80004056:	e709                	bnez	a4,80004060 <__eqdf2+0x4c>
80004058:	00ae6e33          	or	t3,t3,a0
8000405c:	01c03333          	snez	t1,t3
80004060:	851a                	mv	a0,t1
80004062:	8082                	ret
80004064:	fee81ee3          	bne	a6,a4,80004060 <__eqdf2+0x4c>
80004068:	00fe6e33          	or	t3,t3,a5
8000406c:	00ce6e33          	or	t3,t3,a2
80004070:	00ae6e33          	or	t3,t3,a0
80004074:	fe0e16e3          	bnez	t3,80004060 <__eqdf2+0x4c>
80004078:	8d95                	sub	a1,a1,a3
8000407a:	00b03333          	snez	t1,a1
8000407e:	b7cd                	j	80004060 <__eqdf2+0x4c>
80004080:	4305                	li	t1,1
80004082:	851a                	mv	a0,t1
80004084:	8082                	ret

Disassembly of section .text.unlikely:

80004086 <abort>:
80004086:	1141                	addi	sp,sp,-16
80004088:	08600513          	li	a0,134
8000408c:	c606                	sw	ra,12(sp)
8000408e:	cf8ff0ef          	jal	80003586 <tohost_exit>

Disassembly of section .text.startup:

80005000 <main-0x18>:
80005000:	1141                	addi	sp,sp,-16
80005002:	00001517          	auipc	a0,0x1
80005006:	01e50513          	addi	a0,a0,30 # 80006020 <_end_text+0x20>
8000500a:	c606                	sw	ra,12(sp)
8000500c:	db0fe0ef          	jal	800035bc <printstr>
80005010:	40b2                	lw	ra,12(sp)
80005012:	557d                	li	a0,-1
80005014:	0141                	addi	sp,sp,16
80005016:	8082                	ret

80005018 <main>:
80005018:	03100793          	li	a5,49
8000501c:	100006b7          	lui	a3,0x10000
80005020:	00f68023          	sb	a5,0(a3) # 10000000 <buflen.0+0xfffffc0>
80005024:	00001617          	auipc	a2,0x1
80005028:	08460613          	addi	a2,a2,132 # 800060a8 <_end_text+0xa8>
8000502c:	00001797          	auipc	a5,0x1
80005030:	01978793          	addi	a5,a5,25 # 80006045 <_end_text+0x45>
80005034:	0007c703          	lbu	a4,0(a5)
80005038:	0785                	addi	a5,a5,1
8000503a:	00e68023          	sb	a4,0(a3)
8000503e:	fec79be3          	bne	a5,a2,80005034 <main+0x1c>
80005042:	4501                	li	a0,0
80005044:	8082                	ret
